ccopy_reg
_reconstructor
p1
(cpylearn2.models.softmax_regression
SoftmaxRegression
p2
c__builtin__
object
p3
NtRp4
ccollections
OrderedDict
p5
((lp6
(lp7
S'layers'
p8
a(lp9
g1
(cpylearn2.models.mlp
Softmax
p10
g3
NtRp11
g5
((lp12
(lp13
S'_has_binary_target'
p14
aI00
aa(lp15
S'W'
ag1
(ctheano.tensor.sharedvar
TensorSharedVariable
p16
g3
NtRp17
(dp18
S'index'
p19
NsS'tag'
p20
(itheano.gof.utils
scratchpad
p21
(dp22
S'trace'
p23
(lp24
(S'/Users/Yang/PycharmProjects/pylearn2/pylearn2/models/mlp.py'
p25
I543
S'_update_layer_input_spaces'
p26
S'layers[0].set_input_space(self.get_input_space())'
tp27
a(S'/Users/Yang/PycharmProjects/pylearn2/pylearn2/sandbox/rnn/models/mlp_hook.py'
p28
I334
S'outer'
p29
S'return set_input_space(self, input_space)'
tp30
a(g25
I1313
S'set_input_space'
p31
S"self.W = sharedX(W,  'softmax_W')"
tp32
a(S'/Users/Yang/PycharmProjects/pylearn2/pylearn2/utils/__init__.py'
p33
I74
S'sharedX'
p34
S'borrow=borrow)'
tp35
asbsS'container'
p36
g1
(ctheano.gof.link
Container
p37
g3
NtRp38
(dp39
S'name'
p40
S'softmax_W'
p41
sS'storage'
p42
(lp43
cnumpy.core.multiarray
_reconstruct
p44
(cnumpy
ndarray
p45
(I0
tS'b'
tRp46
(I1
(I123
I2
tcnumpy
dtype
p47
(S'f4'
I0
I1
tRp48
(I3
S'<'
NNNI-1
I-1
I0
tbI00
S'=\x0b.?<\x0b.\xbf\x1aBM>\x19BM\xbe\x05\x8e`\xbd\x0b\x8e`=\xe4;\x87\xbe\xde;\x87>\xb3V\x86\xbe\xaeV\x86>t\r\x07\xbe\x9e\r\x07>\xd9\x8e\'>\xe1\x8e\'\xbe\xfb\xa7\x98\xbe\xfb\xa7\x98>4f\xb6\xbe2f\xb6>\x85\xe6\x97\xbcg\xe6\x97<\x1c[P=\x1d[P\xbd\x1e\xab\xb2=\x1f\xab\xb2\xbd\x7fs <~s \xbc\x11(\x19>\x1a(\x19\xbe8\x1c\x92=*\x1c\x92\xbd\xdb\x95/<\xe0\x95/\xbc\xfd8\xd7<\xa58\xd7\xbc\xfe>(=\xd7>(\xbd\xde\xaaG>\xdf\xaaG\xbe$u\xed;\x8cs\xed\xbb\x03\x8d\x99\xbd\xfe\x8c\x99=\xd1\xfe\x05>\xc9\xfe\x05\xbe7\xc0\x93\xbe7\xc0\x93>\xb1e\xe9\xbc\xa7e\xe9</\xaeB=4\xaeB\xbdU\xe1D>U\xe1D\xbe#\x1e\x94>!\x1e\x94\xbe%l,\xbe\'l,>T^4<5^4\xbc\xd1\x1f\xef=\xcd\x1f\xef\xbd\x0e\xe4K<\x06\xe4K\xbc\xa2\x08\xcd\xbe\x9f\x08\xcd>@\x85\x1f>@\x85\x1f\xbe\xeb>\xd0=\xeb>\xd0\xbd}\xf7\x1f?z\xf7\x1f\xbf\xd1\xfe\x05>\xc9\xfe\x05\xbe$u\xed;\x8cs\xed\xbb\xd3\xf6\x9b<\xc6\xf6\x9b\xbc{P\xf7\xbe\x7fP\xf7>H\xd7\x14\xbfK\xd7\x14?\xf1\xa8p>\xf1\xa8p\xbe\xe74\xd7>\xe84\xd7\xbe0\xf0\x86>0\xf0\x86\xbe\xe5\x92_=\xf3\x92_\xbdy\xa8?>w\xa8?\xbe\xbe~\x8f\xbe\xbe~\x8f>\xb4S\xbe\xbe\xb3S\xbe>X\xf5L\xbds\xf5L=\x8e\x95\xb4>\x8d\x95\xb4\xbe\xcc\xd1:\xbe\xd5\xd1:>\xc6K\xea\xbe\xc6K\xea>[\x00\xc1\xbe_\x00\xc1>K\x1b\x89>G\x1b\x89\xbeB\xe9\x1c>@\xe9\x1c\xbe\xbe[c\xbc\x91[c<\x19\x9b\xce>\x16\x9b\xce\xbe\x08\xf7\x00\xbd\x01\xf7\x00=\x13F&>\x13F&\xbe\xc9<\xc8\xbe\xc9<\xc8>\xad)\x05=\xad)\x05\xbds\xda2\xbfs\xda2?\xa2\xc7\xf4>\xa0\xc7\xf4\xbey\x93\xa7=v\x93\xa7\xbd;ge<?ge\xbc\xd8\x08\x89>\xd5\x08\x89\xbe\xef\xce\x1f>\xf3\xce\x1f\xbe0\xc84\xbd \xc84= \x0c\x17\xbc2\x0c\x17<\\\xbd+>Y\xbd+\xbe\xa7\xd9%>\xa7\xd9%\xbex\x7f\xb9<\x8d\x7f\xb9\xbcy\xeb\xb8>|\xeb\xb8\xbe\xe5\xc1~\xbd\xf5\xc1~=\'Q\x14?)Q\x14\xbf\\\x90\x8f\xbe]\x90\x8f>\xc3\xdf\xeb>\xcc\xdf\xeb\xbe(\x9c%\xbe.\x9c%>\xf8\xe5\x05?\xf8\xe5\x05\xbf\x0c\xb2\xe8=\x0e\xb2\xe8\xbd\xd6\xd9\xe6:\xec\xde\xe6\xba\xf2(\x0c\xbe\xf4(\x0c>QoO\xbeZoO>Q\xbdw\xbec\xbdw>\x81\x012\xbe\x81\x012>\x12\xfe\xb5\xbd\x12\xfe\xb5=qX]=sX]\xbd\\eZ\xbe]eZ>\x9f\xa9@\xbe\x9f\xa9@>\xb3Yw=\xb3Yw\xbdE\x7f\xbb=H\x7f\xbb\xbd\xda\xb5\x10\xbe\xdb\xb5\x10>wD\xd3=wD\xd3\xbdr0\x82>s0\x82\xbehl\x18>hl\x18\xbe\xddf\xcf\xbd\xddf\xcf=l\x887\xbbt\x887;m2\x84<l2\x84\xbcx\x9b`\xbex\x9b`>l\x18\x84\xbel\x18\x84>\xa6\xd9\x04=\xa6\xd9\x04\xbd\xc9\xf6\x85\xbc\xc9\xf6\x85<\xa1{,>\xa1{,\xbe\xe7^->\xe7^-\xbed\x81(<i\x81(\xbc\xfe\xa6\x92\xbd\xfe\xa6\x92=\x12\xfa\xe6\xbd\x11\xfa\xe6=@\xb4\xf6=B\xb4\xf6\xbdA\xa1\xb7<B\xa1\xb7\xbcZ\xe3\xce<Y\xe3\xce\xbc\x02\x91\xab\xbc\x01\x91\xab<\x1e\x1du< \x1du\xbc\xd4\xdbu>\xd4\xdbu\xbe\x11\xc8\xda\xba\x18\xc8\xda:(]\x18<&]\x18\xbc\x08\xefI=\x06\xefI\xbd\xa3\xd9\x9a\xbb\xa4\xd9\x9a;\x83\\+<\x82\\+\xbc\xd3\x83p\xbd\xd3\x83p=#\xf8\xd9=%\xf8\xd9\xbd\xc59\x02=\xc59\x02\xbd_\x86\x1e=`\x86\x1e\xbd\xa7b\x0f\xbc\xa5b\x0f<="}:?"}\xba'
tbasS'strict'
p49
I00
sS'readonly'
p50
I00
sS'type'
p51
g1
(ctheano.tensor.type
TensorType
p52
g3
NtRp53
(dp54
S'broadcastable'
p55
(I00
I00
tp56
sS'dtype'
p57
S'float32'
p58
sS'numpy_dtype'
p59
g48
sS'sparse_grad'
p60
I00
sg40
NsbsS'allow_downcast'
p61
Nsbsg40
g41
sS'owner'
p62
Nsg51
g53
sbaa(lp63
S'needs_reformat'
p64
aI00
aa(lp65
S'input_space'
p66
ag1
(cpylearn2.space
VectorSpace
p67
g3
NtRp68
(dp69
S'dim'
p70
I123
sS'_dtype'
p71
S'float32'
p72
sS'validate_callbacks'
p73
(lp74
sS'sparse'
p75
I00
sS'np_validate_callbacks'
p76
(lp77
sbaa(lp78
S'mlp'
p79
ag4
aa(lp80
S'W_lr_scale'
p81
aNaa(lp82
S'names_to_del'
p83
ac__builtin__
set
p84
((ltRp85
aa(lp86
S'max_row_norm'
p87
aNaa(lp88
S'output_space'
p89
ag1
(g67
g3
NtRp90
(dp91
g70
I2
sg71
g72
sg73
(lp92
sg75
I00
sg76
(lp93
sbaa(lp94
S'non_redundant'
p95
aI00
aa(lp96
S'istdev'
p97
aNaa(lp98
S'binary_target_dim'
p99
aNaa(lp100
S'n_classes'
p101
aI2
aa(lp102
S'sparse_init'
p103
aNaa(lp104
S'no_affine'
p105
aI00
aa(lp106
S'layer_name'
p107
aS'y'
aa(lp108
S'irange'
p109
aF0
aa(lp110
S'desired_space'
p111
ag1
(g67
g3
NtRp112
(dp113
g70
I123
sg71
g72
sg73
(lp114
sg75
I00
sg76
(lp115
sbaa(lp116
S'_params'
p117
a(lp118
g1
(g16
g3
NtRp119
(dp120
g19
Nsg20
(itheano.gof.utils
scratchpad
p121
(dp122
g23
(lp123
(S'/Users/Yang/PycharmProjects/pylearn2/pylearn2/utils/call_check.py'
p124
I99
S'checked_call'
p125
S'return to_call(**kwargs)'
tp126
a(S'/Users/Yang/PycharmProjects/pylearn2/pylearn2/models/softmax_regression.py'
p127
I66
S'__init__'
p128
S'init_bias_target_marginals=init_bias_target_marginals)],'
tp129
a(g25
I1173
g128
S"name='softmax_b')"
tp130
a(g33
I74
g34
S'borrow=borrow)'
tp131
asbsg36
g1
(g37
g3
NtRp132
(dp133
g40
S'softmax_b'
p134
sg42
(lp135
g44
(g45
(I0
tS'b'
tRp136
(I1
(I2
tg48
I00
S'\xe8\x12\x99>\xe5\x12\x99\xbe'
tbasg49
I00
sg50
I00
sg51
g1
(g52
g3
NtRp137
(dp138
g55
(I00
tp139
sg57
S'float32'
p140
sg59
g48
sg60
I00
sg40
Nsbsg61
Nsbsg40
g134
sg62
Nsg51
g137
sbag17
aaa(lp141
S'b'
ag119
aa(lp142
S'b_lr_scale'
p143
aNaa(lp144
S'max_col_norm'
p145
aNaa(lp146
S'extensions'
p147
a(lp148
aa(lp149
S'input_dim'
p150
aI123
aatRp151
baaa(lp152
g66
ag68
aa(lp153
S'layer_names'
p154
ag84
((lp155
S'y'
atRp156
aa(lp157
S'freeze_set'
p158
ag84
((ltRp159
aa(lp160
S'yaml_src'
p161
aS'!obj:pylearn2.models.softmax_regression.SoftmaxRegression {n_classes: 2, irange: 0.,\n  nvis: 123}\n'
p162
aa(lp163
S'rng'
p164
acnumpy.random
__RandomState_ctor
p165
(tRp166
(S'MT19937'
p167
g44
(g45
(I0
tS'b'
tRp168
(I1
(I624
tg47
(S'u4'
I0
I1
tRp169
(I3
S'<'
NNNI-1
I-1
I0
tbI00
S'\xb84\xca\xc4\xa7\xcc\xa6\xe1\x8b\xfau\x90\x11"eY\x14\xe48n\x03\x844\x1d\x0f)\x97T\x98\xf1\x06\x14\xee\x97d#\x13\xe6\xebh\xe9\x15[\xc9M\xccKbr\xae\x8dI\x9d\xf8\xdf&D$\x88\xaf \xee\x04J\x19\x92\x9f\x88\xf7\xdb\xef\x17\xc0\x8a\r\xb8c\x1c\xfeN\xfbw,k\xe6\x89F\x17\xd0za\xb7\xcb\xd2\x0b\x87\xe7\xb5~4\xffZ\x7fQ\x989\xddC\xdd\xa5\xf5\xeb\xedi\xc8\xee\x08\x9a\x93\xb1\\\x9f\x01m\xe6\xfd\xb6A\xbc\x1a\xed:\xf0:\xb8\x92\x0e\xd9i\xe0\x08\x89\x9f\x0e\xa2v\x1f\x1a\xcc*\xa62\x02\xef\x1c\x85<\x9fTW\x05\xb4\xc2\x14\x18\x86]\xaf\xdbw1\nm\xcdQ\xba\x1f\xf6$\x89X\x8f\xae<\xa1\xc8\x06\xd0(\x9f\x12L\xa6I\x7f\xe6a%\xd3\xfc\x08\x14\xf7\x02C\xf8\x1ev\x18,_\x846\x8f\xef>P@\xec{\xb6\x0e\x92F\x02\xeb60\xf1 \x94%\xdb\x9cb\xbc\x9c\xc3a\xf6\x02M\x1c\xc9\xf4UIK}%Y\x0f\x82\x01\x15I\xdb\xc3f\xb8eP\x95\xa5S\xbb\xb6\xce<\xc1\x04B>o\x07\xd6\x03\xbeq\x87\xe2\xe6lN\x8e\t\xefa\xff\x90\xb9oOxY\xfc\xedp\xc3\x1e\x02kY\xf2\xaf\xcaZV\x00y\xc1\xce\x14\xff\x93\xbdP\xf9~\x93~\xf9V\x1aU\xe2-3\xb9\x02\xdb\xbdJ5N\xca\x82\xb2\xa9CY\x1e\x02\xf4wu/BA\x99\x94s\x15tn\xb1\xb9\x9c8\xca\xdc\x15\x0f\x9dI\x02N$M\x05XkS\xc7\xa7\xb4\xde\xd5\xe5\x81\x85\xe6\xa1\x1c\x9f\x03h\x9bP]\xec\x07\x89\xcf\xaf=L\x92\x0b}\x93~5\x8f\xc4}\xae\x97\xae\xd5]L\xea\x9c5i|\xc6\\\x9dAj\xb6\xb6\xb8\xe1\xc5CO;v\x17Wq\xe2A\x82,2\xa2\xb9\xb8\xads\xc4g\x01\x96\xb7\xca\xde\xad\xa5-!\xa9\xfb\xda\xec\x14\xd3>[\xe6\x82M\xa5\x8c\xf0\x1b\xb7\xff\n\xd3}\xa4=\xb3\n,\xe5\'`m\x8e\x85\xdca\x8a\xd6\xfa\xc3\x88Ls\x18\x87\xc9lx\xcb\xf1\xd1\x9f\x8b\x0c\'b\x05\x11\xe5\xc20\r^\xbc_\x07N\xec\xaf!/\xaf\xf9\xa7\x1c\x91\xa5*4\xa3/.\xdc2\x13\xbd\xca\x84\xc4\x1a|\xea\x1b\xc1\xde\xd2\xe9\xaet0N\x19\xde\xff\x8f\xfe\xe1lm\x18il\xf5\x9fbQ\x13\n@\xc3\xb4\xb2\t\x8a\t\xe7E\x83<\xb6\xc2\x87n\xed\xf0\xb6\xc2\x9fm\x84\xcd\xf8\xe0\xa3\xa2\xb9ej\xd5\xc6\xc3\xd4\x1f\x04\xca\xfc`2\xc2\x02\xa0\x86Y\xe23\xa7A\xad\x94\xb8\xfc\x19\x1d\xb9_\xff\xcf-k\x9ec/f%\xbf\x11\x02\x86\x08\xf1\xc9\xe1\x8dc\x80\xdc&I\t\xae\x8e\x18\xecy\xe2\x04\x04u:x\x92\xaeV\x02r\x90QFQ?&\x00\x1evP\x9e+\x9aN\x13\xa5Bj\rS\xaa\xae\xb7\xee\x84N\xdc\x01\x83\xf6\xdaF\xec\x15\xebY\x8a\xa9\xcf\xf8\xe0\x07x\xab\xe6\xe3E\xf4\x94a]\xc9\xa3\xfd\xfc\xce\xb9n\xe1\x0e\x08\xdaY+\x15P\xba\xb9w\x14t*\x19\xd2\xcb\x115\xd4$\tc8\xc8\x9c\x8e\xc9\x82\xb0w\x98\xe5\xf0\x14~ND\x08\x87\\`\x92P d\x19Y\xc5\xa5`x\xdfI\xd2\xd9\xfe\xebpG0sb\x02\x06Jh\x93\xeb\xaaM\x828:\x97?x\x99\x9a\x0b\xa1\xc6\x18\x06\xbd7\xeb\n\xde\x169\xb4\xb8\x88\xe6tN\x18J\xf2\xde\x00\xfd?\xeb3\xbcD\xe3\x9a\xad!A\xdc\xa0\xf2\x07F\xed\xc5\x7f\x86\x7f\x89\xd2%\xfc\x05\x96!\x13z\xe7\xf1\xd2\xcb\xbc]GY\xe2l\x04\x9f;\x16)\x8e\xc4\x9f\x85\xf5\xbc39\xfb\x8f1SXlRMJ\xdcr/J\x9cK*\xa7\xd0\xa00\xablwcX\xc8yB\xefIuf\xab\xb2\xc4\xf7\x13\xb0\xb1\x90\xe9)\x0f\xe8\xaf\xbb\xc3T\xc3\xf4\x1b\xa5 9GW"\xdd\xc1\x82\x06G\x91*\xbba\x19\x8fuE\x90\xa5\x80\xab@x#\xeb\'\xf8-\xc9\x1e\xbf\xd1T\xbb\x99\xd9w)\xea\xe4\xbdUe6\xb3\x83B\x92\xc7b\xd2\xec\'\xeft\xad\x129\x0b\xec\x02\x91\xc8\x8f\x03\xf1Y\x0fV\xc2\xc8\xdeXjl(\xb2\x14\x96u\xdb_\xc2\x05\x9c\xf7:#\xe2\x9fv\xf1\xeb\xcal\x1a@"\xfc\xe9y\xdd_w\xb2\xce\xcd`\x83\xd6=\xcc\x04\'\x8e\xf6\xf4\x9e\xcbJn\xf2a\xda\xf2c\x03B\xc5\xca\xd6\xe8\xa2]\xe9Mgi\xb3[\xf8\xf6(\xf6\x05\x8a4U\x82%\x85\xf6\xb5W\xbe\x18:?!u\xdf\xfd^\x8c\xb0\xb3\x83h\xda\xae\xcb\xab\x98\xfa\x02\xb3\x8anwI\'\x80\x99\xd4\xc2\x8f).#\xb5>\x9b\xd8B\xa4d_\xe2t\x8ac5\x06\x7f;\xb6G^\x9f\x9a\x86\x08\xc4\xbe\xdc\x853\xe3\xfc%\xeb\xf2\xd5N\x8a\xca\x97\xc3\x7fQ\xcb\x11\nl\xcd\xe1\x14\x18y\xdcc\x1128%0\x80lx=\x10)o5\xf6)MM\x1c\xdb3\x14\xc91[;\x0f\xfb>\xa0DP\xbd\xbd\x9dWm\x16\xec\x08\x91?b\xe1\xb5\r\xcd\x93:\x1e\x98\xf3\xb5\xe1\x1b\xe7\x00\xe7\xd8*~B\x1d\xd5\x89\xdf\xb7H\xe2J\xcf\x9c\xf2\x1e\x95\xfe\x0bcI\xba\x85$W|\x86\r\xe0\xa53]\x85\xf6\x08\xa7\xbb\x03/\xecy\xe5\xb0\xde1c\xee\\\x96\xb5I`i\x97\xf2\x99\xc0\xe8t\xf4\xc1\xf7E\xa7\xd6\x9c\x02\x8fO<\x84`xn\xe5\\\xf4\x90(\xaf\x8dsf\xd8V\x11\xa2E\x026\xe8\x1b\x8eu\xba]Y\xb6gt5\x07\xc0M\x04:`\x183\xccY\xb1zv\xe5\xb7\xbb\x1c\xa7Z\xda\x01\xfd\x15\xbe\xacP!=\xbcg\xfa\xf3#\xea\x1aV&\x05\xf9W\xd8\xa6\xc8r\xc1\x164\xb1\xfb\xe5E1C[\x920\xa65\xb0`\xea\xfc\x9c =bS\x97m\xd1\xcf\xc9\xa8\xf3k*\xa5\xf7_\xfcQ\x90\x84\r\x9bs\xfb\xee(l/_\x06\x05\x1eQ\xff\x17a\xabI\xeb\x06]\xecX\x87\x92\x97u\x83\xd7\xaa\x85\x86Q\xe4L7N\xa3\x1a\xd5\x8c;\xb7:\xaa\xf7=3Xp\xc6\xbb\x83\xa1y\xc7\xd58\xcc\xda7\xd0\x0b7\xa8+\xea\x08\x9f\xde\xa5\xef\x87\xc43p\x11VdN\xc7\xa1\xee\xaa\xe5\xa7pD\x93s\xf6\x05y\xf6\xd95zw\x95\xd8\x05\xcf&\x98\x9a \x80\xbd\x81\xaehc1\n\xee\xe3\x1eu\xeb\x05\x9cQw\xbe\x9d\xd6A\xd0\xdf*[m\xc7\xc6\xc8\xce\xe04\x15\x16R==\t\x98\xf9\x17\x9f>\xce\xf9\xff\xc1\xc7\xa1\xd7\x8f-\xcd\x04&\'[\xce\x82\x04\xb6\xc2\xbe\xd2\xdbuE\x1b>\xc3%\'\x90=\x03\x9b\x05\x83RB\xf33\xba0_\xca\xe7\x19\x93\x15H\xf6\x84:%\x05\xed\xc2\x01d\x98\xb9\xdeLX\xf1\xbclu\xbc?c\xd6\x13|T\xe9}\x08N\x8emB~\xf6\x1e\x8dRp\x83\xb2~&\x82d\xe8\xc4\x18\x18\xba\xa1\xff\xe1;dT\xdcm\xd6\x87>b\x1d\x05{U\xf8\xf1\x9d\x9d\xfb\xf9=m\x19\xf74E\xddID\xe9G\x17\r\xf1\x90\xd0\xcbY\x19\x9c\xe6dX\xb8\xdf\x8b\xb3\xfan\x88\xc7\x8c\xd9\x8dl\xf0\xd7\x07\t\xbc\xd1v\x15R:\x00G\x1d\xf1\xfc\xed\xb8Z\x8f\x9bkmq\xf2M\xd1\xe6\xa7\xc6A\x98\xc1\x8b\xd6m\xa1\xde\x81\xda\xaf\xd9\x1b\xa9\xea\xd27/Wj-\xfbl\xd9;\r\x90NN\xf4\x08\x1b\x0f\n\xb4t\xdc\xd6\xeb\xadA\x87j}\x92W\xe9\xf8{\xf88[\x18\xa4P\xd9\xb1\xf9+Gy(2Q\x11\xc1\x88\x18\x90\xb7\xe3\xc5\x8ez\xcc\xfc\xf4\xd9\xaeU\xb1\xf2\xb3\xf3\xb2\x80q\xf6\x18i\x17?\x15\xca\x11#)G\x93\x9c\xb2]\xbev\xc2\x8b\x9e\x87\x80(a*>\xb1P7\xda1\x0c\xd1(p\xa0\x17p\x04\x1e\x04(\x9e\x18,\xf0\x19.\x82(cg\x00\xeet`?_\x06k0\x04\x80\xc6%\xa2\xc6\xce\xd0H\xbdGS<\xe2 \x92\xbc^\xfb\xf5c\x05\xf5!\x90\x98J\x8b\xc9\xb4 _G\xab^\x18@2\x804\x19Z\xe5ZI\xe5=`\x95\xfe&(\xaf\xae\xf0\xb8\xbcT\xf6\xdd\x82\'\x95A\x95uB.\xa2~\x91\xcf\x1d\xc7\\\x9b\xfc\xc6V\xa3\xae\x1dx\xc9im8[\x8b\x9d\x1f\x1f6*\xa5\xbc\x9d\xd2\xc1:\x99\xa8z\x84\r\x91\x044\x8d<,\x10\xe3\x11\x85\x93!:$\xa8\x054]\xf1a\xaf\x90\x0c\xf6\xd3V\xaa\xb1\x83q\xdeG\xf6\x06\xffi\xb9\xa9\xf11\x99&@k\xc1\x81H\xee\xa1\x04\x97\xfe\xad\xa1\xce[\x1b\xb7\xf0/\x0e@z\xf0l_\xcb&\xc1j\xc4b(\x8b\x04\xd9\xafw\x06\xa7f9\x80\xf1y\x8bL>\xe2\xfejj"\xdft\xe3g<\xd5\xf7I4\xec:c`2[^:O\xd7\xfaB\xd21\x89j\xd6#\x81\t\xb0$\x10\xef\x81Z9O3\xaa\x08\x0b7\x1e\x0cb\xff\x14\x7f\x81\x92\xcc\x0c\xef\xfc#\x1c>I\xed.\xb4\'&e\t\xcdY6c\n\r\xa9\xae\x0cI\xea\xe1\xc6\xb8\x0b\x07\xea\x01u\x04I6O\xa8k4L"=\xbd\xa5\t\x07\xc7\xc0\xcd?\xf6K\xa4\xd9\x1d8\x8eov\x92\xb1\xc9\x0f{\xe5D\xb4S\xe4\x81\x987p\x1b\x1c$\xb2o\x9f\x93c\xf6v\x15\x8b\x7f\xc8\xc1\xb2\x94\xd5M\x94\x93\n\xae\x0bP\x02*\x12\x91\xdek\xef\xf9\xbd\xf5.\x89\xab\x7f\xfaW3\xa8\x94\xc8\x99BQ\xe9_\x90\x96s\xe9$\xe0i\xc9\xb9\xf6C\xb7A\xbb\x90\xd0\x88.\xc3\x88\xc8\x1a\xda\xc7\xad\xbeS\x1d\x82)\x19\x0b\x94\xd9e N\xf6@\xa0\x18\x0c\xd7\xe4\xbf\xbd\xad\x8a\xd6\xe7\x8a\x98\xfd\xb2\xfb\xdd\xf5\x96\xd1\xf2vj\x97\x01\xa7\xa1\xcfS{\xbe8\xac8\x91\xc4\x85\x12j]o\xba\x91\xbf\t\xd3\xff\x07\x13\xc3:v\x07\x88)\x89?\x89\xd1\xdd\xedq\xcd\x7fR\xf7\x16\xdf\x8f\x80\xa5\x93\x84>\x07\xa075w\xa4\x8a\x8f\xd4T\x8bV\x12\n\xa8\x0ed\xcc\xe5\x13\xef\x078\x95\xdbjJ\xc1\xd2\x94\x02\xa6\x17\x9b?~lN\xb4+\x07\x8a\x08\x952C\x10\x0e\x1b\xc1\xb1\xbds\x7f\xf3&\xd5\xc6Y\xab\xb9dx\xe1\x07\x0b\xb9 \x11V\x17\xf6R\xc4%\x03C\\zoB\xbb\x7fKF_;M\xfe+q\x1e-\xa5-\xc5\xcf\xaf\xafr\x05\xfc\x94\xcc\x82=\x9f\x13\x9931\x8e\xc1\x10\''
tbI492
I0
F0
tbaa(lp170
S'_tag'
p171
accollections
defaultdict
p172
(c__builtin__
dict
p173
tRp174
S'MonitorBasedSaveBest'
p175
(dp176
S'channel_name'
p177
S'valid_y_misclass'
p178
sS'hostname'
p179
S'yyd.home'
p180
sS'save_path'
p181
S'/Users/Yang/PycharmProjects/pylearn2_example/pylearn2-practice/softmax_regression_best.pkl'
p182
sS'best_cost'
p183
cnumpy.core.multiarray
scalar
p184
(g48
S'\xf1\x00\x13>'
tRp185
ssaa(lp186
S'_target_source'
p187
aS'targets'
p188
aa(lp189
S'_nested'
p190
aI00
aa(lp191
S'monitor_targets'
p192
aI01
aa(lp193
S'seed'
p194
a(lp195
I2013
aI1
aI4
aaa(lp196
g147
a(lp197
aa(lp198
S'batch_size'
p199
aNaa(lp200
g83
ag84
((ltRp201
aa(lp202
S'force_batch_size'
p203
aNaa(lp204
S'_input_source'
p205
aS'features'
p206
aa(lp207
S'monitor'
p208
ag1
(cpylearn2.monitor
Monitor
p209
g3
NtRp210
(dp211
S'_batch_size'
p212
(lp213
I10000
aI10000
aI10000
asS'_dirty'
p214
I00
sS'_flat_data_specs'
p215
(g1
(cpylearn2.space
CompositeSpace
p216
g3
NtRp217
(dp218
g73
(lp219
sS'components'
p220
(lp221
g68
ag90
asg76
(lp222
sb(g206
g188
ttp223
sS'_epochs_seen'
p224
I6
sS'_num_batches'
p225
(lp226
NaNaNasS'_examples_seen'
p227
I175806
sS'time_budget_exceeded'
p228
I00
sS'channels'
p229
g5
((lp230
(lp231
S'test_objective'
p232
ag1
(cpylearn2.monitor
MonitorChannel
p233
g3
NtRp234
(dp235
S'epoch_record'
p236
(lp237
I0
aI1
aI2
aI3
aI4
aI5
aI6
asS'doc'
p238
NsS'val_record'
p239
(lp240
g184
(g48
S'\x18r1?'
tRp241
ag184
(g48
S'\xb5<\xa6>'
tRp242
ag184
(g48
S'\x1e2\xa6>'
tRp243
ag184
(g48
S'\x84_\xa6>'
tRp244
ag184
(g48
S'\x0f$\xa6>'
tRp245
ag184
(g48
S'l\xc6\xa6>'
tRp246
ag184
(g48
S'4\xa4\xa6>'
tRp247
asS'batch_record'
p248
(lp249
I0
aI3
aI6
aI9
aI12
aI15
aI18
asS'time_record'
p250
(lp251
F26.789327144622803
aF27.699034929275513
aF28.628019094467163
aF29.560002088546753
aF30.461482048034668
aF31.380002975463867
aF32.310474157333374
asS'example_record'
p252
(lp253
I0
aI29301
aI58602
aI87903
aI117204
aI146505
aI175806
asbaa(lp254
S'test_y_col_norms_max'
p255
ag1
(g233
g3
NtRp256
(dp257
g236
(lp258
I0
aI1
aI2
aI3
aI4
aI5
aI6
asg238
S'This channel came from a layer called "y" of an MLP.\n<class \'pylearn2.models.mlp.Softmax\'>.get_monitoring_channels_from_state did not provide any further documentation for this channel.'
p259
sg239
(lp260
g184
(g48
S'\x00\x00\x00\x00'
tRp261
ag184
(g48
S'"\x8d\x0c@'
tRp262
ag184
(g48
S'\x96\xc8\x13@'
tRp263
ag184
(g48
S'\xcdM\x15@'
tRp264
ag184
(g48
S'\xa8k\x1b@'
tRp265
ag184
(g48
S'!\xd0\x1d@'
tRp266
ag184
(g48
S'3\xd0#@'
tRp267
asg248
(lp268
I0
aI3
aI6
aI9
aI12
aI15
aI18
asg250
(lp269
F26.789327144622803
aF27.699034929275513
aF28.628019094467163
aF29.560002088546753
aF30.461482048034668
aF31.380002975463867
aF32.310474157333374
asg252
(lp270
I0
aI29301
aI58602
aI87903
aI117204
aI146505
aI175806
asbaa(lp271
S'test_y_row_norms_min'
p272
ag1
(g233
g3
NtRp273
(dp274
g236
(lp275
I0
aI1
aI2
aI3
aI4
aI5
aI6
asg238
S'This channel came from a layer called "y" of an MLP.\n<class \'pylearn2.models.mlp.Softmax\'>.get_monitoring_channels_from_state did not provide any further documentation for this channel.'
p276
sg239
(lp277
g184
(g48
S'\x00\x00\x00\x00'
tRp278
ag184
(g48
S'p\xbd\xd39'
tRp279
ag184
(g48
S'\xe3\xa5":'
tRp280
ag184
(g48
S'\xc4\xb6Y:'
tRp281
ag184
(g48
S'\xc8\xcf\x18:'
tRp282
ag184
(g48
S'\xf8\xd6\xa19'
tRp283
ag184
(g48
S'\x1c\xfe\xb2:'
tRp284
asg248
(lp285
I0
aI3
aI6
aI9
aI12
aI15
aI18
asg250
(lp286
F26.789327144622803
aF27.699034929275513
aF28.628019094467163
aF29.560002088546753
aF30.461482048034668
aF31.380002975463867
aF32.310474157333374
asg252
(lp287
I0
aI29301
aI58602
aI87903
aI117204
aI146505
aI175806
asbaa(lp288
S'test_y_nll'
p289
ag1
(g233
g3
NtRp290
(dp291
g236
(lp292
I0
aI1
aI2
aI3
aI4
aI5
aI6
asg238
S'This channel came from a layer called "y" of an MLP.\n<class \'pylearn2.models.mlp.Softmax\'>.get_monitoring_channels_from_state did not provide any further documentation for this channel.'
p293
sg239
(lp294
g184
(g48
S'\x18r1?'
tRp295
ag184
(g48
S'\xb5<\xa6>'
tRp296
ag184
(g48
S'\x1e2\xa6>'
tRp297
ag184
(g48
S'\x84_\xa6>'
tRp298
ag184
(g48
S'\x0f$\xa6>'
tRp299
ag184
(g48
S'l\xc6\xa6>'
tRp300
ag184
(g48
S'4\xa4\xa6>'
tRp301
asg248
(lp302
I0
aI3
aI6
aI9
aI12
aI15
aI18
asg250
(lp303
F26.789327144622803
aF27.699034929275513
aF28.628019094467163
aF29.560002088546753
aF30.461482048034668
aF31.380002975463867
aF32.310474157333374
asg252
(lp304
I0
aI29301
aI58602
aI87903
aI117204
aI146505
aI175806
asbaa(lp305
S'test_y_col_norms_mean'
p306
ag1
(g233
g3
NtRp307
(dp308
g236
(lp309
I0
aI1
aI2
aI3
aI4
aI5
aI6
asg238
S'This channel came from a layer called "y" of an MLP.\n<class \'pylearn2.models.mlp.Softmax\'>.get_monitoring_channels_from_state did not provide any further documentation for this channel.'
p310
sg239
(lp311
g184
(g48
S'\x00\x00\x00\x00'
tRp312
ag184
(g48
S'"\x8d\x0c@'
tRp313
ag184
(g48
S'\x96\xc8\x13@'
tRp314
ag184
(g48
S'\xcdM\x15@'
tRp315
ag184
(g48
S'\xa8k\x1b@'
tRp316
ag184
(g48
S'!\xd0\x1d@'
tRp317
ag184
(g48
S'3\xd0#@'
tRp318
asg248
(lp319
I0
aI3
aI6
aI9
aI12
aI15
aI18
asg250
(lp320
F26.789327144622803
aF27.699034929275513
aF28.628019094467163
aF29.560002088546753
aF30.461482048034668
aF31.380002975463867
aF32.310474157333374
asg252
(lp321
I0
aI29301
aI58602
aI87903
aI117204
aI146505
aI175806
asbaa(lp322
S'test_y_max_max_class'
p323
ag1
(g233
g3
NtRp324
(dp325
g236
(lp326
I0
aI1
aI2
aI3
aI4
aI5
aI6
asg238
S'This channel came from a layer called "y" of an MLP.\n<class \'pylearn2.models.mlp.Softmax\'>.get_monitoring_channels_from_state did not provide any further documentation for this channel.'
p327
sg239
(lp328
g184
(g48
S'\x00\x00\x00?'
tRp329
ag184
(g48
S'\xa0\xf7\x7f?'
tRp330
ag184
(g48
S'n\xf9\x7f?'
tRp331
ag184
(g48
S'e\xf8\x7f?'
tRp332
ag184
(g48
S'\\\xfa\x7f?'
tRp333
ag184
(g48
S'[\xf9\x7f?'
tRp334
ag184
(g48
S'B\xfb\x7f?'
tRp335
asg248
(lp336
I0
aI3
aI6
aI9
aI12
aI15
aI18
asg250
(lp337
F26.789327144622803
aF27.699034929275513
aF28.628019094467163
aF29.560002088546753
aF30.461482048034668
aF31.380002975463867
aF32.310474157333374
asg252
(lp338
I0
aI29301
aI58602
aI87903
aI117204
aI146505
aI175806
asbaa(lp339
S'test_y_min_max_class'
p340
ag1
(g233
g3
NtRp341
(dp342
g236
(lp343
I0
aI1
aI2
aI3
aI4
aI5
aI6
asg238
S'This channel came from a layer called "y" of an MLP.\n<class \'pylearn2.models.mlp.Softmax\'>.get_monitoring_channels_from_state did not provide any further documentation for this channel.'
p344
sg239
(lp345
g184
(g48
S'\x00\x00\x00?'
tRp346
ag184
(g48
S'\x0b\x05\x00?'
tRp347
ag184
(g48
S'c\x04\x00?'
tRp348
ag184
(g48
S'\x02\x02\x00?'
tRp349
ag184
(g48
S'Z\x04\x00?'
tRp350
ag184
(g48
S'\xd3\x02\x00?'
tRp351
ag184
(g48
S'\xd4\x03\x00?'
tRp352
asg248
(lp353
I0
aI3
aI6
aI9
aI12
aI15
aI18
asg250
(lp354
F26.789327144622803
aF27.699034929275513
aF28.628019094467163
aF29.560002088546753
aF30.461482048034668
aF31.380002975463867
aF32.310474157333374
asg252
(lp355
I0
aI29301
aI58602
aI87903
aI117204
aI146505
aI175806
asbaa(lp356
S'test_y_row_norms_max'
p357
ag1
(g233
g3
NtRp358
(dp359
g236
(lp360
I0
aI1
aI2
aI3
aI4
aI5
aI6
asg238
S'This channel came from a layer called "y" of an MLP.\n<class \'pylearn2.models.mlp.Softmax\'>.get_monitoring_channels_from_state did not provide any further documentation for this channel.'
p361
sg239
(lp362
g184
(g48
S'\x00\x00\x00\x00'
tRp363
ag184
(g48
S'\x1cio?'
tRp364
ag184
(g48
S'"q\x84?'
tRp365
ag184
(g48
S'`uy?'
tRp366
ag184
(g48
S'\x92[\x82?'
tRp367
ag184
(g48
S'\xa9{v?'
tRp368
ag184
(g48
S'\xd2\xef|?'
tRp369
asg248
(lp370
I0
aI3
aI6
aI9
aI12
aI15
aI18
asg250
(lp371
F26.789327144622803
aF27.699034929275513
aF28.628019094467163
aF29.560002088546753
aF30.461482048034668
aF31.380002975463867
aF32.310474157333374
asg252
(lp372
I0
aI29301
aI58602
aI87903
aI117204
aI146505
aI175806
asbaa(lp373
S'test_y_misclass'
p374
ag1
(g233
g3
NtRp375
(dp376
g236
(lp377
I0
aI1
aI2
aI3
aI4
aI5
aI6
asg238
S'This channel came from a layer called "y" of an MLP.\n<class \'pylearn2.models.mlp.Softmax\'>.get_monitoring_channels_from_state did not provide any further documentation for this channel.'
p378
sg239
(lp379
g184
(g48
S'N\xe5q>'
tRp380
ag184
(g48
S'F\x06\x19>'
tRp381
ag184
(g48
S'w\x85\x18>'
tRp382
ag184
(g48
S'\xfbv\x19>'
tRp383
ag184
(g48
S'\x8e\xf4\x17>'
tRp384
ag184
(g48
S'\x87\xaa\x1b>'
tRp385
ag184
(g48
S'J\xa7\x19>'
tRp386
asg248
(lp387
I0
aI3
aI6
aI9
aI12
aI15
aI18
asg250
(lp388
F26.789327144622803
aF27.699034929275513
aF28.628019094467163
aF29.560002088546753
aF30.461482048034668
aF31.380002975463867
aF32.310474157333374
asg252
(lp389
I0
aI29301
aI58602
aI87903
aI117204
aI146505
aI175806
asbaa(lp390
S'test_y_col_norms_min'
p391
ag1
(g233
g3
NtRp392
(dp393
g236
(lp394
I0
aI1
aI2
aI3
aI4
aI5
aI6
asg238
S'This channel came from a layer called "y" of an MLP.\n<class \'pylearn2.models.mlp.Softmax\'>.get_monitoring_channels_from_state did not provide any further documentation for this channel.'
p395
sg239
(lp396
g184
(g48
S'\x00\x00\x00\x00'
tRp397
ag184
(g48
S'"\x8d\x0c@'
tRp398
ag184
(g48
S'\x96\xc8\x13@'
tRp399
ag184
(g48
S'\xcdM\x15@'
tRp400
ag184
(g48
S'\xa8k\x1b@'
tRp401
ag184
(g48
S'!\xd0\x1d@'
tRp402
ag184
(g48
S'3\xd0#@'
tRp403
asg248
(lp404
I0
aI3
aI6
aI9
aI12
aI15
aI18
asg250
(lp405
F26.789327144622803
aF27.699034929275513
aF28.628019094467163
aF29.560002088546753
aF30.461482048034668
aF31.380002975463867
aF32.310474157333374
asg252
(lp406
I0
aI29301
aI58602
aI87903
aI117204
aI146505
aI175806
asbaa(lp407
S'test_y_row_norms_mean'
p408
ag1
(g233
g3
NtRp409
(dp410
g236
(lp411
I0
aI1
aI2
aI3
aI4
aI5
aI6
asg238
S'This channel came from a layer called "y" of an MLP.\n<class \'pylearn2.models.mlp.Softmax\'>.get_monitoring_channels_from_state did not provide any further documentation for this channel.'
p412
sg239
(lp413
g184
(g48
S'\x00\x00\x00\x00'
tRp414
ag184
(g48
S'v\x005>'
tRp415
ag184
(g48
S'\xcc\xd6E>'
tRp416
ag184
(g48
S'\x84GP>'
tRp417
ag184
(g48
S'X\xe2Z>'
tRp418
ag184
(g48
S'\xda\xaae>'
tRp419
ag184
(g48
S'\xe4@o>'
tRp420
asg248
(lp421
I0
aI3
aI6
aI9
aI12
aI15
aI18
asg250
(lp422
F26.789327144622803
aF27.699034929275513
aF28.628019094467163
aF29.560002088546753
aF30.461482048034668
aF31.380002975463867
aF32.310474157333374
asg252
(lp423
I0
aI29301
aI58602
aI87903
aI117204
aI146505
aI175806
asbaa(lp424
S'test_y_mean_max_class'
p425
ag1
(g233
g3
NtRp426
(dp427
g236
(lp428
I0
aI1
aI2
aI3
aI4
aI5
aI6
asg238
S'This channel came from a layer called "y" of an MLP.\n<class \'pylearn2.models.mlp.Softmax\'>.get_monitoring_channels_from_state did not provide any further documentation for this channel.'
p429
sg239
(lp430
g184
(g48
S'\x00\x00\x00?'
tRp431
ag184
(g48
S'\x84mZ?'
tRp432
ag184
(g48
S'\xe0\xf5Y?'
tRp433
ag184
(g48
S'\xac\xd7Y?'
tRp434
ag184
(g48
S'\x84BZ?'
tRp435
ag184
(g48
S'\xc3\xccY?'
tRp436
ag184
(g48
S'\xc2LZ?'
tRp437
asg248
(lp438
I0
aI3
aI6
aI9
aI12
aI15
aI18
asg250
(lp439
F26.789327144622803
aF27.699034929275513
aF28.628019094467163
aF29.560002088546753
aF30.461482048034668
aF31.380002975463867
aF32.310474157333374
asg252
(lp440
I0
aI29301
aI58602
aI87903
aI117204
aI146505
aI175806
asbaa(lp441
S'train_objective'
p442
ag1
(g233
g3
NtRp443
(dp444
g236
(lp445
I0
aI1
aI2
aI3
aI4
aI5
aI6
asg238
Nsg239
(lp446
g184
(g48
S'\x17r1?'
tRp447
ag184
(g48
S'\xac\xe5\xa7>'
tRp448
ag184
(g48
S'\x9cC\xa7>'
tRp449
ag184
(g48
S'/\x13\xa7>'
tRp450
ag184
(g48
S'\x14\x07\xa7>'
tRp451
ag184
(g48
S'\xf8@\xa7>'
tRp452
ag184
(g48
S'\xb1O\xa7>'
tRp453
asg248
(lp454
I0
aI3
aI6
aI9
aI12
aI15
aI18
asg250
(lp455
F26.789327144622803
aF27.699034929275513
aF28.628019094467163
aF29.560002088546753
aF30.461482048034668
aF31.380002975463867
aF32.310474157333374
asg252
(lp456
I0
aI29301
aI58602
aI87903
aI117204
aI146505
aI175806
asbaa(lp457
S'train_y_col_norms_max'
p458
ag1
(g233
g3
NtRp459
(dp460
g236
(lp461
I0
aI1
aI2
aI3
aI4
aI5
aI6
asg238
g259
sg239
(lp462
g184
(g48
S'\x00\x00\x00\x00'
tRp463
ag184
(g48
S'!\x8d\x0c@'
tRp464
ag184
(g48
S'\x96\xc8\x13@'
tRp465
ag184
(g48
S'\xccM\x15@'
tRp466
ag184
(g48
S'\xa7k\x1b@'
tRp467
ag184
(g48
S'\x1f\xd0\x1d@'
tRp468
ag184
(g48
S'1\xd0#@'
tRp469
asg248
(lp470
I0
aI3
aI6
aI9
aI12
aI15
aI18
asg250
(lp471
F26.789327144622803
aF27.699034929275513
aF28.628019094467163
aF29.560002088546753
aF30.461482048034668
aF31.380002975463867
aF32.310474157333374
asg252
(lp472
I0
aI29301
aI58602
aI87903
aI117204
aI146505
aI175806
asbaa(lp473
S'train_y_row_norms_min'
p474
ag1
(g233
g3
NtRp475
(dp476
g236
(lp477
I0
aI1
aI2
aI3
aI4
aI5
aI6
asg238
g276
sg239
(lp478
g184
(g48
S'\x00\x00\x00\x00'
tRp479
ag184
(g48
S'p\xbd\xd39'
tRp480
ag184
(g48
S'\xe2\xa5":'
tRp481
ag184
(g48
S'\xc2\xb6Y:'
tRp482
ag184
(g48
S'\xc7\xcf\x18:'
tRp483
ag184
(g48
S'\xf8\xd6\xa19'
tRp484
ag184
(g48
S'\x1b\xfe\xb2:'
tRp485
asg248
(lp486
I0
aI3
aI6
aI9
aI12
aI15
aI18
asg250
(lp487
F26.789327144622803
aF27.699034929275513
aF28.628019094467163
aF29.560002088546753
aF30.461482048034668
aF31.380002975463867
aF32.310474157333374
asg252
(lp488
I0
aI29301
aI58602
aI87903
aI117204
aI146505
aI175806
asbaa(lp489
S'train_y_nll'
p490
ag1
(g233
g3
NtRp491
(dp492
g236
(lp493
I0
aI1
aI2
aI3
aI4
aI5
aI6
asg238
g293
sg239
(lp494
g184
(g48
S'\x17r1?'
tRp495
ag184
(g48
S'\xac\xe5\xa7>'
tRp496
ag184
(g48
S'\x9cC\xa7>'
tRp497
ag184
(g48
S'/\x13\xa7>'
tRp498
ag184
(g48
S'\x14\x07\xa7>'
tRp499
ag184
(g48
S'\xf8@\xa7>'
tRp500
ag184
(g48
S'\xb1O\xa7>'
tRp501
asg248
(lp502
I0
aI3
aI6
aI9
aI12
aI15
aI18
asg250
(lp503
F26.789327144622803
aF27.699034929275513
aF28.628019094467163
aF29.560002088546753
aF30.461482048034668
aF31.380002975463867
aF32.310474157333374
asg252
(lp504
I0
aI29301
aI58602
aI87903
aI117204
aI146505
aI175806
asbaa(lp505
S'train_y_col_norms_mean'
p506
ag1
(g233
g3
NtRp507
(dp508
g236
(lp509
I0
aI1
aI2
aI3
aI4
aI5
aI6
asg238
g310
sg239
(lp510
g184
(g48
S'\x00\x00\x00\x00'
tRp511
ag184
(g48
S'!\x8d\x0c@'
tRp512
ag184
(g48
S'\x96\xc8\x13@'
tRp513
ag184
(g48
S'\xccM\x15@'
tRp514
ag184
(g48
S'\xa7k\x1b@'
tRp515
ag184
(g48
S'\x1f\xd0\x1d@'
tRp516
ag184
(g48
S'1\xd0#@'
tRp517
asg248
(lp518
I0
aI3
aI6
aI9
aI12
aI15
aI18
asg250
(lp519
F26.789327144622803
aF27.699034929275513
aF28.628019094467163
aF29.560002088546753
aF30.461482048034668
aF31.380002975463867
aF32.310474157333374
asg252
(lp520
I0
aI29301
aI58602
aI87903
aI117204
aI146505
aI175806
asbaa(lp521
S'train_y_max_max_class'
p522
ag1
(g233
g3
NtRp523
(dp524
g236
(lp525
I0
aI1
aI2
aI3
aI4
aI5
aI6
asg238
g327
sg239
(lp526
g184
(g48
S'\xff\xff\xff>'
tRp527
ag184
(g48
S'\xdf\xf8\x7f?'
tRp528
ag184
(g48
S'\xae\xfa\x7f?'
tRp529
ag184
(g48
S'L\xf9\x7f?'
tRp530
ag184
(g48
S'\xe0\xfa\x7f?'
tRp531
ag184
(g48
S'-\xfa\x7f?'
tRp532
ag184
(g48
S'b\xfb\x7f?'
tRp533
asg248
(lp534
I0
aI3
aI6
aI9
aI12
aI15
aI18
asg250
(lp535
F26.789327144622803
aF27.699034929275513
aF28.628019094467163
aF29.560002088546753
aF30.461482048034668
aF31.380002975463867
aF32.310474157333374
asg252
(lp536
I0
aI29301
aI58602
aI87903
aI117204
aI146505
aI175806
asbaa(lp537
S'train_y_min_max_class'
p538
ag1
(g233
g3
NtRp539
(dp540
g236
(lp541
I0
aI1
aI2
aI3
aI4
aI5
aI6
asg238
g344
sg239
(lp542
g184
(g48
S'\xff\xff\xff>'
tRp543
ag184
(g48
S'\xb4\x00\x00?'
tRp544
ag184
(g48
S'\r\n\x00?'
tRp545
ag184
(g48
S'^\x10\x00?'
tRp546
ag184
(g48
S'\x0e\t\x00?'
tRp547
ag184
(g48
S'\x99\x04\x00?'
tRp548
ag184
(g48
S'\xd2\x01\x00?'
tRp549
asg248
(lp550
I0
aI3
aI6
aI9
aI12
aI15
aI18
asg250
(lp551
F26.789327144622803
aF27.699034929275513
aF28.628019094467163
aF29.560002088546753
aF30.461482048034668
aF31.380002975463867
aF32.310474157333374
asg252
(lp552
I0
aI29301
aI58602
aI87903
aI117204
aI146505
aI175806
asbaa(lp553
S'train_y_row_norms_max'
p554
ag1
(g233
g3
NtRp555
(dp556
g236
(lp557
I0
aI1
aI2
aI3
aI4
aI5
aI6
asg238
g361
sg239
(lp558
g184
(g48
S'\x00\x00\x00\x00'
tRp559
ag184
(g48
S'\x1cio?'
tRp560
ag184
(g48
S'"q\x84?'
tRp561
ag184
(g48
S'^uy?'
tRp562
ag184
(g48
S'\x91[\x82?'
tRp563
ag184
(g48
S'\xa8{v?'
tRp564
ag184
(g48
S'\xd1\xef|?'
tRp565
asg248
(lp566
I0
aI3
aI6
aI9
aI12
aI15
aI18
asg250
(lp567
F26.789327144622803
aF27.699034929275513
aF28.628019094467163
aF29.560002088546753
aF30.461482048034668
aF31.380002975463867
aF32.310474157333374
asg252
(lp568
I0
aI29301
aI58602
aI87903
aI117204
aI146505
aI175806
asbaa(lp569
S'train_y_misclass'
p570
ag1
(g233
g3
NtRp571
(dp572
g236
(lp573
I0
aI1
aI2
aI3
aI4
aI5
aI6
asg238
g378
sg239
(lp574
g184
(g48
S'^\xbew>'
tRp575
ag184
(g48
S'w\x13\x1c>'
tRp576
ag184
(g48
S')\x9f\x1b>'
tRp577
ag184
(g48
S'A7\x1c>'
tRp578
ag184
(g48
S'\n[\x1c>'
tRp579
ag184
(g48
S'\x96W\x1b>'
tRp580
ag184
(g48
S'c\xd1\x1a>'
tRp581
asg248
(lp582
I0
aI3
aI6
aI9
aI12
aI15
aI18
asg250
(lp583
F26.789327144622803
aF27.699034929275513
aF28.628019094467163
aF29.560002088546753
aF30.461482048034668
aF31.380002975463867
aF32.310474157333374
asg252
(lp584
I0
aI29301
aI58602
aI87903
aI117204
aI146505
aI175806
asbaa(lp585
S'train_y_col_norms_min'
p586
ag1
(g233
g3
NtRp587
(dp588
g236
(lp589
I0
aI1
aI2
aI3
aI4
aI5
aI6
asg238
g395
sg239
(lp590
g184
(g48
S'\x00\x00\x00\x00'
tRp591
ag184
(g48
S'!\x8d\x0c@'
tRp592
ag184
(g48
S'\x96\xc8\x13@'
tRp593
ag184
(g48
S'\xccM\x15@'
tRp594
ag184
(g48
S'\xa7k\x1b@'
tRp595
ag184
(g48
S'\x1f\xd0\x1d@'
tRp596
ag184
(g48
S'1\xd0#@'
tRp597
asg248
(lp598
I0
aI3
aI6
aI9
aI12
aI15
aI18
asg250
(lp599
F26.789327144622803
aF27.699034929275513
aF28.628019094467163
aF29.560002088546753
aF30.461482048034668
aF31.380002975463867
aF32.310474157333374
asg252
(lp600
I0
aI29301
aI58602
aI87903
aI117204
aI146505
aI175806
asbaa(lp601
S'train_y_row_norms_mean'
p602
ag1
(g233
g3
NtRp603
(dp604
g236
(lp605
I0
aI1
aI2
aI3
aI4
aI5
aI6
asg238
g412
sg239
(lp606
g184
(g48
S'\x00\x00\x00\x00'
tRp607
ag184
(g48
S'u\x005>'
tRp608
ag184
(g48
S'\xcc\xd6E>'
tRp609
ag184
(g48
S'\x83GP>'
tRp610
ag184
(g48
S'W\xe2Z>'
tRp611
ag184
(g48
S'\xd8\xaae>'
tRp612
ag184
(g48
S'\xe3@o>'
tRp613
asg248
(lp614
I0
aI3
aI6
aI9
aI12
aI15
aI18
asg250
(lp615
F26.789327144622803
aF27.699034929275513
aF28.628019094467163
aF29.560002088546753
aF30.461482048034668
aF31.380002975463867
aF32.310474157333374
asg252
(lp616
I0
aI29301
aI58602
aI87903
aI117204
aI146505
aI175806
asbaa(lp617
S'train_y_mean_max_class'
p618
ag1
(g233
g3
NtRp619
(dp620
g236
(lp621
I0
aI1
aI2
aI3
aI4
aI5
aI6
asg238
g429
sg239
(lp622
g184
(g48
S'\xff\xff\xff>'
tRp623
ag184
(g48
S'\x921Z?'
tRp624
ag184
(g48
S'\xfe\xcbY?'
tRp625
ag184
(g48
S'Z\xafY?'
tRp626
ag184
(g48
S'\x80#Z?'
tRp627
ag184
(g48
S'\x94\xa8Y?'
tRp628
ag184
(g48
S'\xb17Z?'
tRp629
asg248
(lp630
I0
aI3
aI6
aI9
aI12
aI15
aI18
asg250
(lp631
F26.789327144622803
aF27.699034929275513
aF28.628019094467163
aF29.560002088546753
aF30.461482048034668
aF31.380002975463867
aF32.310474157333374
asg252
(lp632
I0
aI29301
aI58602
aI87903
aI117204
aI146505
aI175806
asbaa(lp633
S'valid_objective'
p634
ag1
(g233
g3
NtRp635
(dp636
g236
(lp637
I0
aI1
aI2
aI3
aI4
aI5
aI6
asg238
Nsg239
(lp638
g184
(g48
S'\x19r1?'
tRp639
ag184
(g48
S'\xbb\xc2\x9d>'
tRp640
ag184
(g48
S'\x9c\x13\x9e>'
tRp641
ag184
(g48
S'D+\x9d>'
tRp642
ag184
(g48
S'g\xb3\x9d>'
tRp643
ag184
(g48
S'\x12s\x9d>'
tRp644
ag184
(g48
S'\xbd\xdf\x9d>'
tRp645
asg248
(lp646
I0
aI3
aI6
aI9
aI12
aI15
aI18
asg250
(lp647
F26.789327144622803
aF27.699034929275513
aF28.628019094467163
aF29.560002088546753
aF30.461482048034668
aF31.380002975463867
aF32.310474157333374
asg252
(lp648
I0
aI29301
aI58602
aI87903
aI117204
aI146505
aI175806
asbaa(lp649
S'valid_y_col_norms_max'
p650
ag1
(g233
g3
NtRp651
(dp652
g236
(lp653
I0
aI1
aI2
aI3
aI4
aI5
aI6
asg238
g259
sg239
(lp654
g184
(g48
S'\x00\x00\x00\x00'
tRp655
ag184
(g48
S'"\x8d\x0c@'
tRp656
ag184
(g48
S'\x96\xc8\x13@'
tRp657
ag184
(g48
S'\xccM\x15@'
tRp658
ag184
(g48
S'\xa8k\x1b@'
tRp659
ag184
(g48
S' \xd0\x1d@'
tRp660
ag184
(g48
S'2\xd0#@'
tRp661
asg248
(lp662
I0
aI3
aI6
aI9
aI12
aI15
aI18
asg250
(lp663
F26.789327144622803
aF27.699034929275513
aF28.628019094467163
aF29.560002088546753
aF30.461482048034668
aF31.380002975463867
aF32.310474157333374
asg252
(lp664
I0
aI29301
aI58602
aI87903
aI117204
aI146505
aI175806
asbaa(lp665
S'valid_y_row_norms_min'
p666
ag1
(g233
g3
NtRp667
(dp668
g236
(lp669
I0
aI1
aI2
aI3
aI4
aI5
aI6
asg238
g276
sg239
(lp670
g184
(g48
S'\x00\x00\x00\x00'
tRp671
ag184
(g48
S'q\xbd\xd39'
tRp672
ag184
(g48
S'\xe3\xa5":'
tRp673
ag184
(g48
S'\xc2\xb6Y:'
tRp674
ag184
(g48
S'\xc7\xcf\x18:'
tRp675
ag184
(g48
S'\xf8\xd6\xa19'
tRp676
ag184
(g48
S'\x1b\xfe\xb2:'
tRp677
asg248
(lp678
I0
aI3
aI6
aI9
aI12
aI15
aI18
asg250
(lp679
F26.789327144622803
aF27.699034929275513
aF28.628019094467163
aF29.560002088546753
aF30.461482048034668
aF31.380002975463867
aF32.310474157333374
asg252
(lp680
I0
aI29301
aI58602
aI87903
aI117204
aI146505
aI175806
asbaa(lp681
S'valid_y_nll'
p682
ag1
(g233
g3
NtRp683
(dp684
g236
(lp685
I0
aI1
aI2
aI3
aI4
aI5
aI6
asg238
g293
sg239
(lp686
g184
(g48
S'\x19r1?'
tRp687
ag184
(g48
S'\xbb\xc2\x9d>'
tRp688
ag184
(g48
S'\x9c\x13\x9e>'
tRp689
ag184
(g48
S'D+\x9d>'
tRp690
ag184
(g48
S'g\xb3\x9d>'
tRp691
ag184
(g48
S'\x12s\x9d>'
tRp692
ag184
(g48
S'\xbd\xdf\x9d>'
tRp693
asg248
(lp694
I0
aI3
aI6
aI9
aI12
aI15
aI18
asg250
(lp695
F26.789327144622803
aF27.699034929275513
aF28.628019094467163
aF29.560002088546753
aF30.461482048034668
aF31.380002975463867
aF32.310474157333374
asg252
(lp696
I0
aI29301
aI58602
aI87903
aI117204
aI146505
aI175806
asbaa(lp697
S'valid_y_col_norms_mean'
p698
ag1
(g233
g3
NtRp699
(dp700
g236
(lp701
I0
aI1
aI2
aI3
aI4
aI5
aI6
asg238
g310
sg239
(lp702
g184
(g48
S'\x00\x00\x00\x00'
tRp703
ag184
(g48
S'"\x8d\x0c@'
tRp704
ag184
(g48
S'\x96\xc8\x13@'
tRp705
ag184
(g48
S'\xccM\x15@'
tRp706
ag184
(g48
S'\xa8k\x1b@'
tRp707
ag184
(g48
S' \xd0\x1d@'
tRp708
ag184
(g48
S'2\xd0#@'
tRp709
asg248
(lp710
I0
aI3
aI6
aI9
aI12
aI15
aI18
asg250
(lp711
F26.789327144622803
aF27.699034929275513
aF28.628019094467163
aF29.560002088546753
aF30.461482048034668
aF31.380002975463867
aF32.310474157333374
asg252
(lp712
I0
aI29301
aI58602
aI87903
aI117204
aI146505
aI175806
asbaa(lp713
S'valid_y_max_max_class'
p714
ag1
(g233
g3
NtRp715
(dp716
g236
(lp717
I0
aI1
aI2
aI3
aI4
aI5
aI6
asg238
g327
sg239
(lp718
g184
(g48
S'\x00\x00\x00?'
tRp719
ag184
(g48
S'\xe0\xf5\x7f?'
tRp720
ag184
(g48
S'\xf2\xf6\x7f?'
tRp721
ag184
(g48
S'\xe3\xf4\x7f?'
tRp722
ag184
(g48
S's\xf7\x7f?'
tRp723
ag184
(g48
S'\xbd\xf5\x7f?'
tRp724
ag184
(g48
S'\xf9\xf6\x7f?'
tRp725
asg248
(lp726
I0
aI3
aI6
aI9
aI12
aI15
aI18
asg250
(lp727
F26.789327144622803
aF27.699034929275513
aF28.628019094467163
aF29.560002088546753
aF30.461482048034668
aF31.380002975463867
aF32.310474157333374
asg252
(lp728
I0
aI29301
aI58602
aI87903
aI117204
aI146505
aI175806
asbaa(lp729
S'valid_y_min_max_class'
p730
ag1
(g233
g3
NtRp731
(dp732
g236
(lp733
I0
aI1
aI2
aI3
aI4
aI5
aI6
asg238
g344
sg239
(lp734
g184
(g48
S'\x00\x00\x00?'
tRp735
ag184
(g48
S'{\t\x00?'
tRp736
ag184
(g48
S'c\x04\x00?'
tRp737
ag184
(g48
S'>\x10\x00?'
tRp738
ag184
(g48
S'+\x00\x00?'
tRp739
ag184
(g48
S'q\x02\x00?'
tRp740
ag184
(g48
S'\xaa\x18\x00?'
tRp741
asg248
(lp742
I0
aI3
aI6
aI9
aI12
aI15
aI18
asg250
(lp743
F26.789327144622803
aF27.699034929275513
aF28.628019094467163
aF29.560002088546753
aF30.461482048034668
aF31.380002975463867
aF32.310474157333374
asg252
(lp744
I0
aI29301
aI58602
aI87903
aI117204
aI146505
aI175806
asbaa(lp745
S'valid_y_row_norms_max'
p746
ag1
(g233
g3
NtRp747
(dp748
g236
(lp749
I0
aI1
aI2
aI3
aI4
aI5
aI6
asg238
g361
sg239
(lp750
g184
(g48
S'\x00\x00\x00\x00'
tRp751
ag184
(g48
S'\x1bio?'
tRp752
ag184
(g48
S'"q\x84?'
tRp753
ag184
(g48
S'`uy?'
tRp754
ag184
(g48
S'\x91[\x82?'
tRp755
ag184
(g48
S'\xa8{v?'
tRp756
ag184
(g48
S'\xd1\xef|?'
tRp757
asg248
(lp758
I0
aI3
aI6
aI9
aI12
aI15
aI18
asg250
(lp759
F26.789327144622803
aF27.699034929275513
aF28.628019094467163
aF29.560002088546753
aF30.461482048034668
aF31.380002975463867
aF32.310474157333374
asg252
(lp760
I0
aI29301
aI58602
aI87903
aI117204
aI146505
aI175806
asbaa(lp761
S'valid_y_misclass'
p762
ag1
(g233
g3
NtRp763
(dp764
g236
(lp765
I0
aI1
aI2
aI3
aI4
aI5
aI6
asg238
g378
sg239
(lp766
g184
(g48
S'\x066l>'
tRp767
ag184
(g48
S'.\xf2\x13>'
tRp768
ag184
(g48
S'j\xe3\x14>'
tRp769
ag184
(g48
S'\x11%\x16>'
tRp770
ag184
(g48
S'\x97B\x14>'
tRp771
ag185
ag184
(g48
S'.\xf2\x13>'
tRp772
asg248
(lp773
I0
aI3
aI6
aI9
aI12
aI15
aI18
asg250
(lp774
F26.789327144622803
aF27.699034929275513
aF28.628019094467163
aF29.560002088546753
aF30.461482048034668
aF31.380002975463867
aF32.310474157333374
asg252
(lp775
I0
aI29301
aI58602
aI87903
aI117204
aI146505
aI175806
asbaa(lp776
S'valid_y_col_norms_min'
p777
ag1
(g233
g3
NtRp778
(dp779
g236
(lp780
I0
aI1
aI2
aI3
aI4
aI5
aI6
asg238
g395
sg239
(lp781
g184
(g48
S'\x00\x00\x00\x00'
tRp782
ag184
(g48
S'"\x8d\x0c@'
tRp783
ag184
(g48
S'\x96\xc8\x13@'
tRp784
ag184
(g48
S'\xccM\x15@'
tRp785
ag184
(g48
S'\xa8k\x1b@'
tRp786
ag184
(g48
S' \xd0\x1d@'
tRp787
ag184
(g48
S'2\xd0#@'
tRp788
asg248
(lp789
I0
aI3
aI6
aI9
aI12
aI15
aI18
asg250
(lp790
F26.789327144622803
aF27.699034929275513
aF28.628019094467163
aF29.560002088546753
aF30.461482048034668
aF31.380002975463867
aF32.310474157333374
asg252
(lp791
I0
aI29301
aI58602
aI87903
aI117204
aI146505
aI175806
asbaa(lp792
S'valid_y_row_norms_mean'
p793
ag1
(g233
g3
NtRp794
(dp795
g236
(lp796
I0
aI1
aI2
aI3
aI4
aI5
aI6
asg238
g412
sg239
(lp797
g184
(g48
S'\x00\x00\x00\x00'
tRp798
ag184
(g48
S'v\x005>'
tRp799
ag184
(g48
S'\xcc\xd6E>'
tRp800
ag184
(g48
S'\x84GP>'
tRp801
ag184
(g48
S'W\xe2Z>'
tRp802
ag184
(g48
S'\xd7\xaae>'
tRp803
ag184
(g48
S'\xe4@o>'
tRp804
asg248
(lp805
I0
aI3
aI6
aI9
aI12
aI15
aI18
asg250
(lp806
F26.789327144622803
aF27.699034929275513
aF28.628019094467163
aF29.560002088546753
aF30.461482048034668
aF31.380002975463867
aF32.310474157333374
asg252
(lp807
I0
aI29301
aI58602
aI87903
aI117204
aI146505
aI175806
asbaa(lp808
S'valid_y_mean_max_class'
p809
ag1
(g233
g3
NtRp810
(dp811
g236
(lp812
I0
aI1
aI2
aI3
aI4
aI5
aI6
asg238
g429
sg239
(lp813
g184
(g48
S'\x00\x00\x00?'
tRp814
ag184
(g48
S'l\x0b[?'
tRp815
ag184
(g48
S'\x13\x92Z?'
tRp816
ag184
(g48
S'\xfdnZ?'
tRp817
ag184
(g48
S'\x0c\x01[?'
tRp818
ag184
(g48
S'\x13vZ?'
tRp819
ag184
(g48
S'\xc1\xecZ?'
tRp820
asg248
(lp821
I0
aI3
aI6
aI9
aI12
aI15
aI18
asg250
(lp822
F26.789327144622803
aF27.699034929275513
aF28.628019094467163
aF29.560002088546753
aF30.461482048034668
aF31.380002975463867
aF32.310474157333374
asg252
(lp823
I0
aI29301
aI58602
aI87903
aI117204
aI146505
aI175806
asbaa(lp824
S'ave_step_size'
p825
ag1
(g233
g3
NtRp826
(dp827
g236
(lp828
I0
aI1
aI2
aI3
aI4
aI5
aI6
asg238
Nsg239
(lp829
g184
(g48
S'\x00\x00\x00\x00'
tRp830
ag184
(g48
S'\x05\xb7\x9a>'
tRp831
ag184
(g48
S'P\x16w>'
tRp832
ag184
(g48
S'\x958F>'
tRp833
ag184
(g48
S'\xd2V!>'
tRp834
ag184
(g48
S'\x9b\xd6\t>'
tRp835
ag184
(g48
S'\xe8Z\xf0='
tRp836
asg248
(lp837
I0
aI3
aI6
aI9
aI12
aI15
aI18
asg250
(lp838
F26.789327144622803
aF27.699034929275513
aF28.628019094467163
aF29.560002088546753
aF30.461482048034668
aF31.380002975463867
aF32.310474157333374
asg252
(lp839
I0
aI29301
aI58602
aI87903
aI117204
aI146505
aI175806
asbaa(lp840
S'ave_grad_size'
p841
ag1
(g233
g3
NtRp842
(dp843
g236
(lp844
I0
aI1
aI2
aI3
aI4
aI5
aI6
asg238
Nsg239
(lp845
g184
(g48
S'\x00\x00\x00\x00'
tRp846
ag184
(g48
S'H\x89G?'
tRp847
ag184
(g48
S'\x88\x08\x15?'
tRp848
ag184
(g48
S'\x01\x11\xdf>'
tRp849
ag184
(g48
S'4\x81\xa7>'
tRp850
ag184
(g48
S'bM}>'
tRp851
ag184
(g48
S'\xee\xbe?>'
tRp852
asg248
(lp853
I0
aI3
aI6
aI9
aI12
aI15
aI18
asg250
(lp854
F26.789327144622803
aF27.699034929275513
aF28.628019094467163
aF29.560002088546753
aF30.461482048034668
aF31.380002975463867
aF32.310474157333374
asg252
(lp855
I0
aI29301
aI58602
aI87903
aI117204
aI146505
aI175806
asbaa(lp856
S'ave_grad_mult'
p857
ag1
(g233
g3
NtRp858
(dp859
g236
(lp860
I0
aI1
aI2
aI3
aI4
aI5
aI6
asg238
Nsg239
(lp861
g184
(g48
S'\x00\x00\x00\x00'
tRp862
ag184
(g48
S'\x84;\xbc?'
tRp863
ag184
(g48
S':\xc7\x13@'
tRp864
ag184
(g48
S'Xe,@'
tRp865
ag184
(g48
S'\xc4`F@'
tRp866
ag184
(g48
S'\x0elS@'
tRp867
ag184
(g48
S'6Kf@'
tRp868
asg248
(lp869
I0
aI3
aI6
aI9
aI12
aI15
aI18
asg250
(lp870
F26.789327144622803
aF27.699034929275513
aF28.628019094467163
aF29.560002088546753
aF30.461482048034668
aF31.380002975463867
aF32.310474157333374
asg252
(lp871
I0
aI29301
aI58602
aI87903
aI117204
aI146505
aI175806
asbaa(lp872
S'training_seconds_this_epoch'
p873
ag1
(g233
g3
NtRp874
(dp875
g236
(lp876
I0
aI1
aI2
aI3
aI4
aI5
aI6
asg238
S'The number of seconds that were spent in actual training during the most\nrecent epoch. This excludes seconds that were spent running callbacks for\nthe extensions, computing monitoring channels, etc.'
p877
sg239
(lp878
g184
(g48
S'\x00\x00\x00\x00'
tRp879
ag184
(g48
S'\x1aW`?'
tRp880
ag184
(g48
S'\xdfYc?'
tRp881
ag184
(g48
S'<7e?'
tRp882
ag184
(g48
S'6\xee]?'
tRp883
ag184
(g48
S'\x93Xb?'
tRp884
ag184
(g48
S'\xce\xaac?'
tRp885
asg248
(lp886
I0
aI3
aI6
aI9
aI12
aI15
aI18
asg250
(lp887
F26.789327144622803
aF27.699034929275513
aF28.628019094467163
aF29.560002088546753
aF30.461482048034668
aF31.380002975463867
aF32.310474157333374
asg252
(lp888
I0
aI29301
aI58602
aI87903
aI117204
aI146505
aI175806
asbaa(lp889
S'total_seconds_last_epoch'
p890
ag1
(g233
g3
NtRp891
(dp892
g236
(lp893
I0
aI1
aI2
aI3
aI4
aI5
aI6
asg238
S'The number of seconds that were spent on the entirety of processing for the\nprevious epoch. This includes not only training but also the computation of\nthe monitoring channels, running TrainExtension callbacks, etc. This value\nis reported for the *previous* epoch because the amount of time spent on\nmonitoring for this epoch is not known until the monitoring channels have\nalready been reported.'
p894
sg239
(lp895
g184
(g48
S'\x00\x00\x00\x00'
tRp896
ag184
(g48
S'\x00\x00\x00\x00'
tRp897
ag184
(g48
S'\x08\xd1j?'
tRp898
ag184
(g48
S'\xca\xa6l?'
tRp899
ag184
(g48
S'\x80\x13n?'
tRp900
ag184
(g48
S'n\xaaf?'
tRp901
ag184
(g48
S'\xf4\xdel?'
tRp902
asg248
(lp903
I0
aI3
aI6
aI9
aI12
aI15
aI18
asg250
(lp904
F26.789327144622803
aF27.699034929275513
aF28.628019094467163
aF29.560002088546753
aF30.461482048034668
aF31.380002975463867
aF32.310474157333374
asg252
(lp905
I0
aI29301
aI58602
aI87903
aI117204
aI146505
aI175806
asbaatRp906
sS'_datasets'
p907
(lp908
S"!obj:adult_dataset.AdultDataset {path: 'adult/test.csv', one_hot: 1}\n"
p909
aS"!obj:adult_dataset.AdultDataset {path: 'adult/train_v.csv', one_hot: 1}\n"
p910
aS"!obj:adult_dataset.AdultDataset {path: 'adult/test_v.csv', one_hot: 1}\n"
p911
asS'_iteration_mode'
p912
(lp913
S'sequential'
p914
ag914
ag914
asS'_data_specs_mapping'
p915
g1
(cpylearn2.utils.data_specs
DataSpecsMapping
p916
g3
NtRp917
(dp918
S'spec_mapping'
p919
((I0
I1
t(I0
I1
t(I0
I1
t(I0
I1
t(I0
I1
t(I0
I1
t(I0
I1
t(I0
I1
t(I0
I1
t(I0
I1
t(I0
I1
t(I0
I1
t(I0
I1
t(I0
I1
t(I0
I1
t(I0
I1
t(I0
I1
t(I0
I1
t(I0
I1
t(I0
I1
t(I0
I1
t(I0
I1
t(I0
I1
t(I0
I1
t(I0
I1
t(I0
I1
t(I0
I1
t(I0
I1
t(I0
I1
t(I0
I1
t(I0
I1
t(I0
I1
t(I0
I1
t(I0
I1
t(I0
I1
t(I0
I1
t(I0
I1
tNNNNNtp920
sS'specs_to_index'
p921
(dp922
(g68
g206
tp923
I0
s(g90
g188
tp924
I1
ssS'n_unique_specs'
p925
I2
sbsS'training_succeeded'
p926
I01
sS'_num_batches_seen'
p927
I18
sS't0'
p928
F1426114020.217212
sg83
(lp929
S'theano_function_mode'
p930
aS'accum'
p931
aS'begin_record_entry'
p932
aS'num_examples'
p933
aS'prereqs'
p934
asS'model'
p935
g4
sS'_nested_data_specs'
p936
(g1
(g216
g3
NtRp937
(dp938
g73
(lp939
sg220
(lp940
g1
(g216
g3
NtRp941
(dp942
g73
(lp943
sg220
(lp944
g68
ag90
asg76
(lp945
sbag1
(g216
g3
NtRp946
(dp947
g73
(lp948
sg220
(lp949
g68
ag90
asg76
(lp950
sbag1
(g216
g3
NtRp951
(dp952
g73
(lp953
sg220
(lp954
g68
ag90
asg76
(lp955
sbag951
ag951
ag951
ag951
ag951
ag951
ag951
ag951
ag951
ag951
ag1
(g216
g3
NtRp956
(dp957
g73
(lp958
sg220
(lp959
g68
ag90
asg76
(lp960
sbag951
ag951
ag951
ag951
ag951
ag951
ag951
ag951
ag951
ag951
ag951
ag1
(g216
g3
NtRp961
(dp962
g73
(lp963
sg220
(lp964
g68
ag90
asg76
(lp965
sbag951
ag951
ag951
ag951
ag951
ag951
ag951
ag951
ag951
ag951
ag951
ag1
(cpylearn2.space
NullSpace
p966
g3
NtRp967
(dp968
g73
(lp969
sg76
(lp970
sbag1
(g966
g3
NtRp971
(dp972
g73
(lp973
sg76
(lp974
sbag1
(g966
g3
NtRp975
(dp976
g73
(lp977
sg76
(lp978
sbag1
(g966
g3
NtRp979
(dp980
g73
(lp981
sg76
(lp982
sbag1
(g966
g3
NtRp983
(dp984
g73
(lp985
sg76
(lp986
sbasg76
(lp987
sb((g206
g188
t(g206
g188
tp988
(g206
g188
tp989
g989
g989
g989
g989
g989
g989
g989
g989
g989
g989
(g206
g188
tp990
g989
g989
g989
g989
g989
g989
g989
g989
g989
g989
g989
(g206
g188
tp991
g989
g989
g989
g989
g989
g989
g989
g989
g989
g989
g989
S''
S''
S''
S''
S''
ttp992
sS'_rng_seed'
p993
(lp994
NaNaNasbaa(lp995
g107
aNaa(lp996
S'dataset_yaml_src'
p997
ag910
aatRp998
b.