ccopy_reg
_reconstructor
p1
(cpylearn2.models.softmax_regression
SoftmaxRegression
p2
c__builtin__
object
p3
NtRp4
ccollections
OrderedDict
p5
((lp6
(lp7
S'layers'
p8
a(lp9
g1
(cpylearn2.models.mlp
Softmax
p10
g3
NtRp11
g5
((lp12
(lp13
S'_has_binary_target'
p14
aI00
aa(lp15
S'W'
ag1
(ctheano.sandbox.cuda.var
CudaNdarraySharedVariable
p16
g3
NtRp17
(dp18
S'index'
p19
NsS'tag'
p20
(itheano.gof.utils
scratchpad
p21
(dp22
S'trace'
p23
(lp24
(S'/Users/Yang/PycharmProjects/pylearn2/pylearn2/models/mlp.py'
p25
I543
S'_update_layer_input_spaces'
p26
S'layers[0].set_input_space(self.get_input_space())'
tp27
a(S'/Users/Yang/PycharmProjects/pylearn2/pylearn2/sandbox/rnn/models/mlp_hook.py'
p28
I334
S'outer'
p29
S'return set_input_space(self, input_space)'
tp30
a(g25
I1313
S'set_input_space'
p31
S"self.W = sharedX(W,  'softmax_W')"
tp32
a(S'/Users/Yang/PycharmProjects/pylearn2/pylearn2/utils/__init__.py'
p33
I74
S'sharedX'
p34
S'borrow=borrow)'
tp35
asbsS'container'
p36
g1
(ctheano.gof.link
Container
p37
g3
NtRp38
(dp39
S'name'
p40
S'softmax_W'
p41
sS'storage'
p42
(lp43
ctheano.sandbox.cuda.type
CudaNdarray_unpickler
p44
(cnumpy.core.multiarray
_reconstruct
p45
(cnumpy
ndarray
p46
(I0
tS'b'
tRp47
(I1
(I123
I2
tcnumpy
dtype
p48
(S'f4'
I0
I1
tRp49
(I3
S'<'
NNNI-1
I-1
I0
tbI00
S'\x1439=\x1439\xbd\xb2\x9a\xe4=\xb2\x9a\xe4\xbd\x87\x8d\\\xbe\x87\x8d\\>\xb2W\x83\xbd\xb2W\x83=\xb3xw>\xb3xw\xbe\xfb\xa5\xd7\xbd\xfb\xa5\xd7=\xe9\xc2z>\xe9\xc2z\xbe7\xa29\xbf7\xa29?J\xcf\xe0\xbeJ\xcf\xe0>?u\x05??u\x05\xbfM\t\xe9\xbdM\t\xe9=\x98a\x8a\xbd\x98a\x8a=,j\x04\xbe,j\x04>\xe0i;\xbf\xe0i;?\xf8\xc6\xad>\xf8\xc6\xad\xbe\x90\xc7@?\x90\xc7@\xbf\xe7!\x92=\xe7!\x92\xbd\xc4\x1d\xa0\xbe\xc4\x1d\xa0>\xa68\xd6\xbe\xa68\xd6>u\xce\xdb=u\xce\xdb\xbd\x8c\xd8\x01\xbf\x8c\xd8\x01?[\x0c\x96=[\x0c\x96\xbd\xcc\xee\xb2>\xcc\xee\xb2\xbe\x19\xe9\xc4>\x19\xe9\xc4\xbe\xe4\xfc5\xbe\xe4\xfc5>\x9cH\xf4>\x9cH\xf4\xbeT\x17\x0b\xbeT\x17\x0b>\xca)\xe9\xbe\xca)\xe9>\xb1.\t>\xb1.\t\xbe\xc32\xc5=\xc32\xc5\xbd\x1a&[\xbd\x1a&[=\x10\xe9\x05=\x10\xe9\x05\xbd\xa6\xec\x93\xbc\xa6\xec\x93<\xf1\xeck>\xf1\xeck\xbek~\xbb\xbek~\xbb>[\x0c\x96=[\x0c\x96\xbdu\xce\xdb=u\xce\xdb\xbd\xf9\xd3S>\xf9\xd3S\xbe9&\xc8=9&\xc8\xbdd\xcf\xd5\xbed\xcf\xd5>\xbe\xb7\x0c>\xbe\xb7\x0c\xbe\x08\xb6\x10?\x08\xb6\x10\xbf\xef\xd0\xa6>\xef\xd0\xa6\xbe\xf9\x9c\xf4=\xf9\x9c\xf4\xbd\xa8\x05\x9c\xbe\xa8\x05\x9c>g\x00\x9d\xbeg\x00\x9d>\xcf\xc5\xb3\xbf\xcf\xc5\xb3?\x14D\x12=\x14D\x12\xbd\x80\x99\x88>\x80\x99\x88\xbeT-\xfa=T-\xfa\xbd\xfax\x12\xbf\xfax\x12?\x8b\xfd\xf6\xbe\x8b\xfd\xf6>\xa4lb\xbe\xa4lb>\xc3\x89\xea>\xc3\x89\xea\xbe\xb7\xe5b\xbe\xb7\xe5b>\x8f(C>\x8f(C\xbe2\xd5\xf0>2\xd5\xf0\xbeQ=\x04?Q=\x04\xbf\x99\xd1\x13\xbe\x99\xd1\x13>+0\x9a>+0\x9a\xbe\xb2f\xc3\xbd\xb2f\xc3=\x82\xee.\xbe\x82\xee.>Pgr>Pgr\xbe\x19\xa6\x9b\xbe\x19\xa6\x9b>\xc9\xbc9?\xc9\xbc9\xbf\x10\xcb\x8b\xbe\x10\xcb\x8b>\r\xf8\x1b\xbe\r\xf8\x1b>\xda\xf0\x9e\xbe\xda\xf0\x9e>\nDR>\nDR\xbe\xee.\r?\xee.\r\xbfVR3\xbeVR3>[Aq>[Aq\xbe9\xda\xee\xbd9\xda\xee=\x87\x89<>\x87\x89<\xbe.g\x85\xbd.g\x85=\xa5\xe2\x1f\xbe\xa5\xe2\x1f>I\xdb\x8c>I\xdb\x8c\xbe\xb1\x82\xa3\xbe\xb1\x82\xa3>\xb4\xdd\x1f\xbe\xb4\xdd\x1f>?a\xb8<?a\xb8\xbc{^\xcb>{^\xcb\xbe\x81\xf02>\x81\xf02\xbe\xfc5#?\xfc5#\xbf\xd8\xd3\xc4<\xd8\xd3\xc4\xbcT\xc0\x95>T\xc0\x95\xbe\xf5\x81\xd9\xbd\xf5\x81\xd9=\xdd\xb4\xad\xbe\xdd\xb4\xad>N\xad\x10\xbeN\xad\x10>(\xf6\x82?(\xf6\x82\xbf\\u.>\\u.\xbey}\x95=y}\x95\xbd\xb4\xba\xc4\xbe\xb4\xba\xc4>\x8e*\xb7\xbe\x8e*\xb7>\xa9>(\xbe\xa9>(>\x1d\xf5Y>\x1d\xf5Y\xbe)0Q>)0Q\xbeaj\x92>aj\x92\xbe\rG\xe2=\rG\xe2\xbd\xae]\x1a>\xae]\x1a\xbe\xfc\xd8E?\xfc\xd8E\xbfi\xe3\xaa\xbei\xe3\xaa>E+\xea\xbeE+\xea>\xf8\x15b>\xf8\x15b\xbeD\xa0O?D\xa0O\xbfjW\xfd=jW\xfd\xbd\\\xce\x06\xbf\\\xce\x06?o\x1d\xdc>o\x1d\xdc\xben\x0f.>n\x0f.\xbe>&\x1c?>&\x1c\xbf\xca\x85\x8f\xbb\xca\x85\x8f;;\xa0\xb9\xbe;\xa0\xb9>Pz\x86>Pz\x86\xbe\xaaxf>\xaaxf\xbe\xe0\xe5-\xbf\xe0\xe5-?\xca\xc5~>\xca\xc5~\xbe\xeb\xb0\xeb>\xeb\xb0\xeb\xbe\xf8^}<\xf8^}\xbc\xac/B\xbe\xac/B>\xa6\xffv?\xa6\xffv\xbf\x9bfP?\x9bfP\xbf:\xd2\xad>:\xd2\xad\xbe\x04\x86\r>\x04\x86\r\xbe\xd6c=?\xd6c=\xbf'
tbtRp50
asS'strict'
p51
I00
sS'readonly'
p52
I00
sS'type'
p53
g1
(ctheano.sandbox.cuda.type
CudaNdarrayType
p54
g3
NtRp55
(dp56
S'broadcastable'
p57
(I00
I00
tp58
sg40
NsbsS'allow_downcast'
p59
Nsbsg40
g41
sS'get_value_return_ndarray'
p60
I01
sS'owner'
p61
Nsg53
g55
sbaa(lp62
S'needs_reformat'
p63
aI00
aa(lp64
S'input_space'
p65
ag1
(cpylearn2.space
VectorSpace
p66
g3
NtRp67
(dp68
S'dim'
p69
I123
sS'_dtype'
p70
S'float32'
p71
sS'validate_callbacks'
p72
(lp73
sS'sparse'
p74
I00
sS'np_validate_callbacks'
p75
(lp76
sbaa(lp77
S'mlp'
p78
ag4
aa(lp79
S'W_lr_scale'
p80
aNaa(lp81
S'names_to_del'
p82
ac__builtin__
set
p83
((ltRp84
aa(lp85
S'max_row_norm'
p86
aNaa(lp87
S'output_space'
p88
ag1
(g66
g3
NtRp89
(dp90
g69
I2
sg70
g71
sg72
(lp91
sg74
I00
sg75
(lp92
sbaa(lp93
S'non_redundant'
p94
aI00
aa(lp95
S'istdev'
p96
aNaa(lp97
S'binary_target_dim'
p98
aNaa(lp99
S'n_classes'
p100
aI2
aa(lp101
S'sparse_init'
p102
aNaa(lp103
S'no_affine'
p104
aI00
aa(lp105
S'layer_name'
p106
aS'y'
aa(lp107
S'irange'
p108
aF0
aa(lp109
S'desired_space'
p110
ag1
(g66
g3
NtRp111
(dp112
g69
I123
sg70
g71
sg72
(lp113
sg74
I00
sg75
(lp114
sbaa(lp115
S'_params'
p116
a(lp117
g1
(g16
g3
NtRp118
(dp119
g19
Nsg20
(itheano.gof.utils
scratchpad
p120
(dp121
g23
(lp122
(S'/Users/Yang/PycharmProjects/pylearn2/pylearn2/utils/call_check.py'
p123
I99
S'checked_call'
p124
S'return to_call(**kwargs)'
tp125
a(S'/Users/Yang/PycharmProjects/pylearn2/pylearn2/models/softmax_regression.py'
p126
I66
S'__init__'
p127
S'init_bias_target_marginals=init_bias_target_marginals)],'
tp128
a(g25
I1173
g127
S"name='softmax_b')"
tp129
a(g33
I74
g34
S'borrow=borrow)'
tp130
asbsg36
g1
(g37
g3
NtRp131
(dp132
g40
S'softmax_b'
p133
sg42
(lp134
g44
(g45
(g46
(I0
tS'b'
tRp135
(I1
(I2
tg49
I00
S'\x8b\xaa\xf3=\x8b\xaa\xf3\xbd'
tbtRp136
asg51
I00
sg52
I00
sg53
g1
(g54
g3
NtRp137
(dp138
g57
(I00
tp139
sg40
Nsbsg59
Nsbsg40
g133
sg60
I01
sg61
Nsg53
g137
sbag17
aaa(lp140
S'b'
ag118
aa(lp141
S'b_lr_scale'
p142
aNaa(lp143
S'max_col_norm'
p144
aNaa(lp145
S'extensions'
p146
a(lp147
aa(lp148
S'input_dim'
p149
aI123
aatRp150
baaa(lp151
g65
ag67
aa(lp152
S'layer_names'
p153
ag83
((lp154
S'y'
atRp155
aa(lp156
S'freeze_set'
p157
ag83
((ltRp158
aa(lp159
S'yaml_src'
p160
aS'!obj:pylearn2.models.softmax_regression.SoftmaxRegression {n_classes: 2, irange: 0.,\n  nvis: 123}\n'
p161
aa(lp162
S'rng'
p163
acnumpy.random
__RandomState_ctor
p164
(tRp165
(S'MT19937'
p166
g45
(g46
(I0
tS'b'
tRp167
(I1
(I624
tg48
(S'u4'
I0
I1
tRp168
(I3
S'<'
NNNI-1
I-1
I0
tbI00
S'\xb84\xca\xc4\xa7\xcc\xa6\xe1\x8b\xfau\x90\x11"eY\x14\xe48n\x03\x844\x1d\x0f)\x97T\x98\xf1\x06\x14\xee\x97d#\x13\xe6\xebh\xe9\x15[\xc9M\xccKbr\xae\x8dI\x9d\xf8\xdf&D$\x88\xaf \xee\x04J\x19\x92\x9f\x88\xf7\xdb\xef\x17\xc0\x8a\r\xb8c\x1c\xfeN\xfbw,k\xe6\x89F\x17\xd0za\xb7\xcb\xd2\x0b\x87\xe7\xb5~4\xffZ\x7fQ\x989\xddC\xdd\xa5\xf5\xeb\xedi\xc8\xee\x08\x9a\x93\xb1\\\x9f\x01m\xe6\xfd\xb6A\xbc\x1a\xed:\xf0:\xb8\x92\x0e\xd9i\xe0\x08\x89\x9f\x0e\xa2v\x1f\x1a\xcc*\xa62\x02\xef\x1c\x85<\x9fTW\x05\xb4\xc2\x14\x18\x86]\xaf\xdbw1\nm\xcdQ\xba\x1f\xf6$\x89X\x8f\xae<\xa1\xc8\x06\xd0(\x9f\x12L\xa6I\x7f\xe6a%\xd3\xfc\x08\x14\xf7\x02C\xf8\x1ev\x18,_\x846\x8f\xef>P@\xec{\xb6\x0e\x92F\x02\xeb60\xf1 \x94%\xdb\x9cb\xbc\x9c\xc3a\xf6\x02M\x1c\xc9\xf4UIK}%Y\x0f\x82\x01\x15I\xdb\xc3f\xb8eP\x95\xa5S\xbb\xb6\xce<\xc1\x04B>o\x07\xd6\x03\xbeq\x87\xe2\xe6lN\x8e\t\xefa\xff\x90\xb9oOxY\xfc\xedp\xc3\x1e\x02kY\xf2\xaf\xcaZV\x00y\xc1\xce\x14\xff\x93\xbdP\xf9~\x93~\xf9V\x1aU\xe2-3\xb9\x02\xdb\xbdJ5N\xca\x82\xb2\xa9CY\x1e\x02\xf4wu/BA\x99\x94s\x15tn\xb1\xb9\x9c8\xca\xdc\x15\x0f\x9dI\x02N$M\x05XkS\xc7\xa7\xb4\xde\xd5\xe5\x81\x85\xe6\xa1\x1c\x9f\x03h\x9bP]\xec\x07\x89\xcf\xaf=L\x92\x0b}\x93~5\x8f\xc4}\xae\x97\xae\xd5]L\xea\x9c5i|\xc6\\\x9dAj\xb6\xb6\xb8\xe1\xc5CO;v\x17Wq\xe2A\x82,2\xa2\xb9\xb8\xads\xc4g\x01\x96\xb7\xca\xde\xad\xa5-!\xa9\xfb\xda\xec\x14\xd3>[\xe6\x82M\xa5\x8c\xf0\x1b\xb7\xff\n\xd3}\xa4=\xb3\n,\xe5\'`m\x8e\x85\xdca\x8a\xd6\xfa\xc3\x88Ls\x18\x87\xc9lx\xcb\xf1\xd1\x9f\x8b\x0c\'b\x05\x11\xe5\xc20\r^\xbc_\x07N\xec\xaf!/\xaf\xf9\xa7\x1c\x91\xa5*4\xa3/.\xdc2\x13\xbd\xca\x84\xc4\x1a|\xea\x1b\xc1\xde\xd2\xe9\xaet0N\x19\xde\xff\x8f\xfe\xe1lm\x18il\xf5\x9fbQ\x13\n@\xc3\xb4\xb2\t\x8a\t\xe7E\x83<\xb6\xc2\x87n\xed\xf0\xb6\xc2\x9fm\x84\xcd\xf8\xe0\xa3\xa2\xb9ej\xd5\xc6\xc3\xd4\x1f\x04\xca\xfc`2\xc2\x02\xa0\x86Y\xe23\xa7A\xad\x94\xb8\xfc\x19\x1d\xb9_\xff\xcf-k\x9ec/f%\xbf\x11\x02\x86\x08\xf1\xc9\xe1\x8dc\x80\xdc&I\t\xae\x8e\x18\xecy\xe2\x04\x04u:x\x92\xaeV\x02r\x90QFQ?&\x00\x1evP\x9e+\x9aN\x13\xa5Bj\rS\xaa\xae\xb7\xee\x84N\xdc\x01\x83\xf6\xdaF\xec\x15\xebY\x8a\xa9\xcf\xf8\xe0\x07x\xab\xe6\xe3E\xf4\x94a]\xc9\xa3\xfd\xfc\xce\xb9n\xe1\x0e\x08\xdaY+\x15P\xba\xb9w\x14t*\x19\xd2\xcb\x115\xd4$\tc8\xc8\x9c\x8e\xc9\x82\xb0w\x98\xe5\xf0\x14~ND\x08\x87\\`\x92P d\x19Y\xc5\xa5`x\xdfI\xd2\xd9\xfe\xebpG0sb\x02\x06Jh\x93\xeb\xaaM\x828:\x97?x\x99\x9a\x0b\xa1\xc6\x18\x06\xbd7\xeb\n\xde\x169\xb4\xb8\x88\xe6tN\x18J\xf2\xde\x00\xfd?\xeb3\xbcD\xe3\x9a\xad!A\xdc\xa0\xf2\x07F\xed\xc5\x7f\x86\x7f\x89\xd2%\xfc\x05\x96!\x13z\xe7\xf1\xd2\xcb\xbc]GY\xe2l\x04\x9f;\x16)\x8e\xc4\x9f\x85\xf5\xbc39\xfb\x8f1SXlRMJ\xdcr/J\x9cK*\xa7\xd0\xa00\xablwcX\xc8yB\xefIuf\xab\xb2\xc4\xf7\x13\xb0\xb1\x90\xe9)\x0f\xe8\xaf\xbb\xc3T\xc3\xf4\x1b\xa5 9GW"\xdd\xc1\x82\x06G\x91*\xbba\x19\x8fuE\x90\xa5\x80\xab@x#\xeb\'\xf8-\xc9\x1e\xbf\xd1T\xbb\x99\xd9w)\xea\xe4\xbdUe6\xb3\x83B\x92\xc7b\xd2\xec\'\xeft\xad\x129\x0b\xec\x02\x91\xc8\x8f\x03\xf1Y\x0fV\xc2\xc8\xdeXjl(\xb2\x14\x96u\xdb_\xc2\x05\x9c\xf7:#\xe2\x9fv\xf1\xeb\xcal\x1a@"\xfc\xe9y\xdd_w\xb2\xce\xcd`\x83\xd6=\xcc\x04\'\x8e\xf6\xf4\x9e\xcbJn\xf2a\xda\xf2c\x03B\xc5\xca\xd6\xe8\xa2]\xe9Mgi\xb3[\xf8\xf6(\xf6\x05\x8a4U\x82%\x85\xf6\xb5W\xbe\x18:?!u\xdf\xfd^\x8c\xb0\xb3\x83h\xda\xae\xcb\xab\x98\xfa\x02\xb3\x8anwI\'\x80\x99\xd4\xc2\x8f).#\xb5>\x9b\xd8B\xa4d_\xe2t\x8ac5\x06\x7f;\xb6G^\x9f\x9a\x86\x08\xc4\xbe\xdc\x853\xe3\xfc%\xeb\xf2\xd5N\x8a\xca\x97\xc3\x7fQ\xcb\x11\nl\xcd\xe1\x14\x18y\xdcc\x1128%0\x80lx=\x10)o5\xf6)MM\x1c\xdb3\x14\xc91[;\x0f\xfb>\xa0DP\xbd\xbd\x9dWm\x16\xec\x08\x91?b\xe1\xb5\r\xcd\x93:\x1e\x98\xf3\xb5\xe1\x1b\xe7\x00\xe7\xd8*~B\x1d\xd5\x89\xdf\xb7H\xe2J\xcf\x9c\xf2\x1e\x95\xfe\x0bcI\xba\x85$W|\x86\r\xe0\xa53]\x85\xf6\x08\xa7\xbb\x03/\xecy\xe5\xb0\xde1c\xee\\\x96\xb5I`i\x97\xf2\x99\xc0\xe8t\xf4\xc1\xf7E\xa7\xd6\x9c\x02\x8fO<\x84`xn\xe5\\\xf4\x90(\xaf\x8dsf\xd8V\x11\xa2E\x026\xe8\x1b\x8eu\xba]Y\xb6gt5\x07\xc0M\x04:`\x183\xccY\xb1zv\xe5\xb7\xbb\x1c\xa7Z\xda\x01\xfd\x15\xbe\xacP!=\xbcg\xfa\xf3#\xea\x1aV&\x05\xf9W\xd8\xa6\xc8r\xc1\x164\xb1\xfb\xe5E1C[\x920\xa65\xb0`\xea\xfc\x9c =bS\x97m\xd1\xcf\xc9\xa8\xf3k*\xa5\xf7_\xfcQ\x90\x84\r\x9bs\xfb\xee(l/_\x06\x05\x1eQ\xff\x17a\xabI\xeb\x06]\xecX\x87\x92\x97u\x83\xd7\xaa\x85\x86Q\xe4L7N\xa3\x1a\xd5\x8c;\xb7:\xaa\xf7=3Xp\xc6\xbb\x83\xa1y\xc7\xd58\xcc\xda7\xd0\x0b7\xa8+\xea\x08\x9f\xde\xa5\xef\x87\xc43p\x11VdN\xc7\xa1\xee\xaa\xe5\xa7pD\x93s\xf6\x05y\xf6\xd95zw\x95\xd8\x05\xcf&\x98\x9a \x80\xbd\x81\xaehc1\n\xee\xe3\x1eu\xeb\x05\x9cQw\xbe\x9d\xd6A\xd0\xdf*[m\xc7\xc6\xc8\xce\xe04\x15\x16R==\t\x98\xf9\x17\x9f>\xce\xf9\xff\xc1\xc7\xa1\xd7\x8f-\xcd\x04&\'[\xce\x82\x04\xb6\xc2\xbe\xd2\xdbuE\x1b>\xc3%\'\x90=\x03\x9b\x05\x83RB\xf33\xba0_\xca\xe7\x19\x93\x15H\xf6\x84:%\x05\xed\xc2\x01d\x98\xb9\xdeLX\xf1\xbclu\xbc?c\xd6\x13|T\xe9}\x08N\x8emB~\xf6\x1e\x8dRp\x83\xb2~&\x82d\xe8\xc4\x18\x18\xba\xa1\xff\xe1;dT\xdcm\xd6\x87>b\x1d\x05{U\xf8\xf1\x9d\x9d\xfb\xf9=m\x19\xf74E\xddID\xe9G\x17\r\xf1\x90\xd0\xcbY\x19\x9c\xe6dX\xb8\xdf\x8b\xb3\xfan\x88\xc7\x8c\xd9\x8dl\xf0\xd7\x07\t\xbc\xd1v\x15R:\x00G\x1d\xf1\xfc\xed\xb8Z\x8f\x9bkmq\xf2M\xd1\xe6\xa7\xc6A\x98\xc1\x8b\xd6m\xa1\xde\x81\xda\xaf\xd9\x1b\xa9\xea\xd27/Wj-\xfbl\xd9;\r\x90NN\xf4\x08\x1b\x0f\n\xb4t\xdc\xd6\xeb\xadA\x87j}\x92W\xe9\xf8{\xf88[\x18\xa4P\xd9\xb1\xf9+Gy(2Q\x11\xc1\x88\x18\x90\xb7\xe3\xc5\x8ez\xcc\xfc\xf4\xd9\xaeU\xb1\xf2\xb3\xf3\xb2\x80q\xf6\x18i\x17?\x15\xca\x11#)G\x93\x9c\xb2]\xbev\xc2\x8b\x9e\x87\x80(a*>\xb1P7\xda1\x0c\xd1(p\xa0\x17p\x04\x1e\x04(\x9e\x18,\xf0\x19.\x82(cg\x00\xeet`?_\x06k0\x04\x80\xc6%\xa2\xc6\xce\xd0H\xbdGS<\xe2 \x92\xbc^\xfb\xf5c\x05\xf5!\x90\x98J\x8b\xc9\xb4 _G\xab^\x18@2\x804\x19Z\xe5ZI\xe5=`\x95\xfe&(\xaf\xae\xf0\xb8\xbcT\xf6\xdd\x82\'\x95A\x95uB.\xa2~\x91\xcf\x1d\xc7\\\x9b\xfc\xc6V\xa3\xae\x1dx\xc9im8[\x8b\x9d\x1f\x1f6*\xa5\xbc\x9d\xd2\xc1:\x99\xa8z\x84\r\x91\x044\x8d<,\x10\xe3\x11\x85\x93!:$\xa8\x054]\xf1a\xaf\x90\x0c\xf6\xd3V\xaa\xb1\x83q\xdeG\xf6\x06\xffi\xb9\xa9\xf11\x99&@k\xc1\x81H\xee\xa1\x04\x97\xfe\xad\xa1\xce[\x1b\xb7\xf0/\x0e@z\xf0l_\xcb&\xc1j\xc4b(\x8b\x04\xd9\xafw\x06\xa7f9\x80\xf1y\x8bL>\xe2\xfejj"\xdft\xe3g<\xd5\xf7I4\xec:c`2[^:O\xd7\xfaB\xd21\x89j\xd6#\x81\t\xb0$\x10\xef\x81Z9O3\xaa\x08\x0b7\x1e\x0cb\xff\x14\x7f\x81\x92\xcc\x0c\xef\xfc#\x1c>I\xed.\xb4\'&e\t\xcdY6c\n\r\xa9\xae\x0cI\xea\xe1\xc6\xb8\x0b\x07\xea\x01u\x04I6O\xa8k4L"=\xbd\xa5\t\x07\xc7\xc0\xcd?\xf6K\xa4\xd9\x1d8\x8eov\x92\xb1\xc9\x0f{\xe5D\xb4S\xe4\x81\x987p\x1b\x1c$\xb2o\x9f\x93c\xf6v\x15\x8b\x7f\xc8\xc1\xb2\x94\xd5M\x94\x93\n\xae\x0bP\x02*\x12\x91\xdek\xef\xf9\xbd\xf5.\x89\xab\x7f\xfaW3\xa8\x94\xc8\x99BQ\xe9_\x90\x96s\xe9$\xe0i\xc9\xb9\xf6C\xb7A\xbb\x90\xd0\x88.\xc3\x88\xc8\x1a\xda\xc7\xad\xbeS\x1d\x82)\x19\x0b\x94\xd9e N\xf6@\xa0\x18\x0c\xd7\xe4\xbf\xbd\xad\x8a\xd6\xe7\x8a\x98\xfd\xb2\xfb\xdd\xf5\x96\xd1\xf2vj\x97\x01\xa7\xa1\xcfS{\xbe8\xac8\x91\xc4\x85\x12j]o\xba\x91\xbf\t\xd3\xff\x07\x13\xc3:v\x07\x88)\x89?\x89\xd1\xdd\xedq\xcd\x7fR\xf7\x16\xdf\x8f\x80\xa5\x93\x84>\x07\xa075w\xa4\x8a\x8f\xd4T\x8bV\x12\n\xa8\x0ed\xcc\xe5\x13\xef\x078\x95\xdbjJ\xc1\xd2\x94\x02\xa6\x17\x9b?~lN\xb4+\x07\x8a\x08\x952C\x10\x0e\x1b\xc1\xb1\xbds\x7f\xf3&\xd5\xc6Y\xab\xb9dx\xe1\x07\x0b\xb9 \x11V\x17\xf6R\xc4%\x03C\\zoB\xbb\x7fKF_;M\xfe+q\x1e-\xa5-\xc5\xcf\xaf\xafr\x05\xfc\x94\xcc\x82=\x9f\x13\x9931\x8e\xc1\x10\''
tbI492
I0
F0
tbaa(lp169
S'_tag'
p170
accollections
defaultdict
p171
(c__builtin__
dict
p172
tRp173
S'MonitorBasedSaveBest'
p174
(dp175
S'channel_name'
p176
S'valid_y_misclass'
p177
sS'hostname'
p178
S'yyd.local'
p179
sS'save_path'
p180
S'/Users/Yang/PycharmProjects/pylearn2Tutorial/pylearn2-classification/softmax_regression_best.pkl'
p181
sS'best_cost'
p182
g45
(g46
(I0
tS'b'
tRp183
(I1
(tg49
I00
S'\x076l>'
tbssaa(lp184
S'_target_source'
p185
aS'targets'
p186
aa(lp187
S'_nested'
p188
aI00
aa(lp189
S'monitor_targets'
p190
aI01
aa(lp191
S'seed'
p192
a(lp193
I2013
aI1
aI4
aaa(lp194
g146
a(lp195
aa(lp196
S'batch_size'
p197
aNaa(lp198
g82
ag83
((ltRp199
aa(lp200
S'force_batch_size'
p201
aNaa(lp202
S'_input_source'
p203
aS'features'
p204
aa(lp205
S'monitor'
p206
ag1
(cpylearn2.monitor
Monitor
p207
g3
NtRp208
(dp209
S'_batch_size'
p210
(lp211
I100
aI100
aI100
asS'_dirty'
p212
I00
sS'_flat_data_specs'
p213
(g1
(cpylearn2.space
CompositeSpace
p214
g3
NtRp215
(dp216
g72
(lp217
sS'components'
p218
(lp219
g67
ag89
asg75
(lp220
sb(g204
g186
ttp221
sS'_epochs_seen'
p222
I13
sS'_num_batches'
p223
(lp224
NaNaNasS'_examples_seen'
p225
I380900
sS'time_budget_exceeded'
p226
I00
sS'channels'
p227
g5
((lp228
(lp229
S'test_objective'
p230
ag1
(cpylearn2.monitor
MonitorChannel
p231
g3
NtRp232
(dp233
S'epoch_record'
p234
(lp235
I0
aI1
aI2
aI3
aI4
aI5
aI6
aI7
aI8
aI9
aI10
aI11
aI12
aI13
asS'doc'
p236
NsS'val_record'
p237
(lp238
g45
(g46
(I0
tS'b'
tRp239
(I1
(tg49
I00
S'\x13r1?'
tbag45
(g46
(I0
tS'b'
tRp240
(I1
(tg49
I00
S'\xec\xceP?'
tbag45
(g46
(I0
tS'b'
tRp241
(I1
(tg49
I00
S'\x97)H?'
tbag45
(g46
(I0
tS'b'
tRp242
(I1
(tg49
I00
S'\xf1\x18K?'
tbag45
(g46
(I0
tS'b'
tRp243
(I1
(tg49
I00
S'\x13\xc4N?'
tbag45
(g46
(I0
tS'b'
tRp244
(I1
(tg49
I00
S"'\xfe_?"
tbag45
(g46
(I0
tS'b'
tRp245
(I1
(tg49
I00
S'\xb4?J?'
tbag45
(g46
(I0
tS'b'
tRp246
(I1
(tg49
I00
S'\xef&\x7f?'
tbag45
(g46
(I0
tS'b'
tRp247
(I1
(tg49
I00
S'\x99I6?'
tbag45
(g46
(I0
tS'b'
tRp248
(I1
(tg49
I00
S'\xce\xbae?'
tbag45
(g46
(I0
tS'b'
tRp249
(I1
(tg49
I00
S'c\x0fB?'
tbag45
(g46
(I0
tS'b'
tRp250
(I1
(tg49
I00
S'BM>?'
tbag45
(g46
(I0
tS'b'
tRp251
(I1
(tg49
I00
S'P\xeb\\?'
tbag45
(g46
(I0
tS'b'
tRp252
(I1
(tg49
I00
S'\xd9\xdc+?'
tbasS'batch_record'
p253
(lp254
I0
aI293
aI586
aI879
aI1172
aI1465
aI1758
aI2051
aI2344
aI2637
aI2930
aI3223
aI3516
aI3809
asS'time_record'
p255
(lp256
F4.372899055480957
aF38.230388879776001
aF74.3855299949646
aF112.7558159828186
aF147.41332006454468
aF187.26236701011658
aF223.98739385604858
aF266.0420548915863
aF303.33898591995239
aF344.1863968372345
aF384.30198693275452
aF427.58870100975037
aF468.78763604164124
aF505.61919689178467
asS'example_record'
p257
(lp258
I0
aI29300
aI58600
aI87900
aI117200
aI146500
aI175800
aI205100
aI234400
aI263700
aI293000
aI322300
aI351600
aI380900
asbaa(lp259
S'test_y_col_norms_max'
p260
ag1
(g231
g3
NtRp261
(dp262
g234
(lp263
I0
aI1
aI2
aI3
aI4
aI5
aI6
aI7
aI8
aI9
aI10
aI11
aI12
aI13
asg236
S'This channel came from a layer called "y" of an MLP.\n<class \'pylearn2.models.mlp.Softmax\'>.get_monitoring_channels_from_state did not provide any further documentation for this channel.'
p264
sg237
(lp265
g45
(g46
(I0
tS'b'
tRp266
(I1
(tg49
I00
S'\x00\x00\x00\x00'
tbag45
(g46
(I0
tS'b'
tRp267
(I1
(tg49
I00
S'\xe5_\x97@'
tbag45
(g46
(I0
tS'b'
tRp268
(I1
(tg49
I00
S'\xcc\xd5\x8c@'
tbag45
(g46
(I0
tS'b'
tRp269
(I1
(tg49
I00
S'bP\x88@'
tbag45
(g46
(I0
tS'b'
tRp270
(I1
(tg49
I00
S'I\xd1\x91@'
tbag45
(g46
(I0
tS'b'
tRp271
(I1
(tg49
I00
S'W\xd2\x88@'
tbag45
(g46
(I0
tS'b'
tRp272
(I1
(tg49
I00
S'+\xe3\x8d@'
tbag45
(g46
(I0
tS'b'
tRp273
(I1
(tg49
I00
S'\n,\x8a@'
tbag45
(g46
(I0
tS'b'
tRp274
(I1
(tg49
I00
S'x\x93\x88@'
tbag45
(g46
(I0
tS'b'
tRp275
(I1
(tg49
I00
S'\xb9\xa8\x86@'
tbag45
(g46
(I0
tS'b'
tRp276
(I1
(tg49
I00
S'\x07\xb1\x86@'
tbag45
(g46
(I0
tS'b'
tRp277
(I1
(tg49
I00
S'\xb8\xa3\x89@'
tbag45
(g46
(I0
tS'b'
tRp278
(I1
(tg49
I00
S'\x10o\x9f@'
tbag45
(g46
(I0
tS'b'
tRp279
(I1
(tg49
I00
S'G\xb4\x88@'
tbasg253
(lp280
I0
aI293
aI586
aI879
aI1172
aI1465
aI1758
aI2051
aI2344
aI2637
aI2930
aI3223
aI3516
aI3809
asg255
(lp281
F4.372899055480957
aF38.230388879776001
aF74.3855299949646
aF112.7558159828186
aF147.41332006454468
aF187.26236701011658
aF223.98739385604858
aF266.0420548915863
aF303.33898591995239
aF344.1863968372345
aF384.30198693275452
aF427.58870100975037
aF468.78763604164124
aF505.61919689178467
asg257
(lp282
I0
aI29300
aI58600
aI87900
aI117200
aI146500
aI175800
aI205100
aI234400
aI263700
aI293000
aI322300
aI351600
aI380900
asbaa(lp283
S'test_y_row_norms_min'
p284
ag1
(g231
g3
NtRp285
(dp286
g234
(lp287
I0
aI1
aI2
aI3
aI4
aI5
aI6
aI7
aI8
aI9
aI10
aI11
aI12
aI13
asg236
S'This channel came from a layer called "y" of an MLP.\n<class \'pylearn2.models.mlp.Softmax\'>.get_monitoring_channels_from_state did not provide any further documentation for this channel.'
p288
sg237
(lp289
g45
(g46
(I0
tS'b'
tRp290
(I1
(tg49
I00
S'\x00\x00\x00\x00'
tbag45
(g46
(I0
tS'b'
tRp291
(I1
(tg49
I00
S'I\xbd\x8c<'
tbag45
(g46
(I0
tS'b'
tRp292
(I1
(tg49
I00
S'/\x906<'
tbag45
(g46
(I0
tS'b'
tRp293
(I1
(tg49
I00
S'nr\x1c<'
tbag45
(g46
(I0
tS'b'
tRp294
(I1
(tg49
I00
S'\xe4d\x9c:'
tbag45
(g46
(I0
tS'b'
tRp295
(I1
(tg49
I00
S'e\r\x82<'
tbag45
(g46
(I0
tS'b'
tRp296
(I1
(tg49
I00
S'\xd5\xb8\xb2;'
tbag45
(g46
(I0
tS'b'
tRp297
(I1
(tg49
I00
S'\xf9{\xd9:'
tbag45
(g46
(I0
tS'b'
tRp298
(I1
(tg49
I00
S'\x96\x89\xc2;'
tbag45
(g46
(I0
tS'b'
tRp299
(I1
(tg49
I00
S'\xfb\x1a\n<'
tbag45
(g46
(I0
tS'b'
tRp300
(I1
(tg49
I00
S'\x0b\xac\xd4;'
tbag45
(g46
(I0
tS'b'
tRp301
(I1
(tg49
I00
S'\xd6\x05\x9b;'
tbag45
(g46
(I0
tS'b'
tRp302
(I1
(tg49
I00
S'LO\x00<'
tbag45
(g46
(I0
tS'b'
tRp303
(I1
(tg49
I00
S'\xb6\xf8\xca;'
tbasg253
(lp304
I0
aI293
aI586
aI879
aI1172
aI1465
aI1758
aI2051
aI2344
aI2637
aI2930
aI3223
aI3516
aI3809
asg255
(lp305
F4.372899055480957
aF38.230388879776001
aF74.3855299949646
aF112.7558159828186
aF147.41332006454468
aF187.26236701011658
aF223.98739385604858
aF266.0420548915863
aF303.33898591995239
aF344.1863968372345
aF384.30198693275452
aF427.58870100975037
aF468.78763604164124
aF505.61919689178467
asg257
(lp306
I0
aI29300
aI58600
aI87900
aI117200
aI146500
aI175800
aI205100
aI234400
aI263700
aI293000
aI322300
aI351600
aI380900
asbaa(lp307
S'test_y_nll'
p308
ag1
(g231
g3
NtRp309
(dp310
g234
(lp311
I0
aI1
aI2
aI3
aI4
aI5
aI6
aI7
aI8
aI9
aI10
aI11
aI12
aI13
asg236
S'This channel came from a layer called "y" of an MLP.\n<class \'pylearn2.models.mlp.Softmax\'>.get_monitoring_channels_from_state did not provide any further documentation for this channel.'
p312
sg237
(lp313
g45
(g46
(I0
tS'b'
tRp314
(I1
(tg49
I00
S'\x13r1?'
tbag45
(g46
(I0
tS'b'
tRp315
(I1
(tg49
I00
S'\xec\xceP?'
tbag45
(g46
(I0
tS'b'
tRp316
(I1
(tg49
I00
S'\x97)H?'
tbag45
(g46
(I0
tS'b'
tRp317
(I1
(tg49
I00
S'\xf1\x18K?'
tbag45
(g46
(I0
tS'b'
tRp318
(I1
(tg49
I00
S'\x13\xc4N?'
tbag45
(g46
(I0
tS'b'
tRp319
(I1
(tg49
I00
S"'\xfe_?"
tbag45
(g46
(I0
tS'b'
tRp320
(I1
(tg49
I00
S'\xb4?J?'
tbag45
(g46
(I0
tS'b'
tRp321
(I1
(tg49
I00
S'\xef&\x7f?'
tbag45
(g46
(I0
tS'b'
tRp322
(I1
(tg49
I00
S'\x99I6?'
tbag45
(g46
(I0
tS'b'
tRp323
(I1
(tg49
I00
S'\xce\xbae?'
tbag45
(g46
(I0
tS'b'
tRp324
(I1
(tg49
I00
S'c\x0fB?'
tbag45
(g46
(I0
tS'b'
tRp325
(I1
(tg49
I00
S'BM>?'
tbag45
(g46
(I0
tS'b'
tRp326
(I1
(tg49
I00
S'P\xeb\\?'
tbag45
(g46
(I0
tS'b'
tRp327
(I1
(tg49
I00
S'\xd9\xdc+?'
tbasg253
(lp328
I0
aI293
aI586
aI879
aI1172
aI1465
aI1758
aI2051
aI2344
aI2637
aI2930
aI3223
aI3516
aI3809
asg255
(lp329
F4.372899055480957
aF38.230388879776001
aF74.3855299949646
aF112.7558159828186
aF147.41332006454468
aF187.26236701011658
aF223.98739385604858
aF266.0420548915863
aF303.33898591995239
aF344.1863968372345
aF384.30198693275452
aF427.58870100975037
aF468.78763604164124
aF505.61919689178467
asg257
(lp330
I0
aI29300
aI58600
aI87900
aI117200
aI146500
aI175800
aI205100
aI234400
aI263700
aI293000
aI322300
aI351600
aI380900
asbaa(lp331
S'test_y_col_norms_mean'
p332
ag1
(g231
g3
NtRp333
(dp334
g234
(lp335
I0
aI1
aI2
aI3
aI4
aI5
aI6
aI7
aI8
aI9
aI10
aI11
aI12
aI13
asg236
S'This channel came from a layer called "y" of an MLP.\n<class \'pylearn2.models.mlp.Softmax\'>.get_monitoring_channels_from_state did not provide any further documentation for this channel.'
p336
sg237
(lp337
g45
(g46
(I0
tS'b'
tRp338
(I1
(tg49
I00
S'\x00\x00\x00\x00'
tbag45
(g46
(I0
tS'b'
tRp339
(I1
(tg49
I00
S'\xe5_\x97@'
tbag45
(g46
(I0
tS'b'
tRp340
(I1
(tg49
I00
S'\xcc\xd5\x8c@'
tbag45
(g46
(I0
tS'b'
tRp341
(I1
(tg49
I00
S'`P\x88@'
tbag45
(g46
(I0
tS'b'
tRp342
(I1
(tg49
I00
S'I\xd1\x91@'
tbag45
(g46
(I0
tS'b'
tRp343
(I1
(tg49
I00
S'W\xd2\x88@'
tbag45
(g46
(I0
tS'b'
tRp344
(I1
(tg49
I00
S'+\xe3\x8d@'
tbag45
(g46
(I0
tS'b'
tRp345
(I1
(tg49
I00
S'\n,\x8a@'
tbag45
(g46
(I0
tS'b'
tRp346
(I1
(tg49
I00
S'x\x93\x88@'
tbag45
(g46
(I0
tS'b'
tRp347
(I1
(tg49
I00
S'\xb9\xa8\x86@'
tbag45
(g46
(I0
tS'b'
tRp348
(I1
(tg49
I00
S'\x07\xb1\x86@'
tbag45
(g46
(I0
tS'b'
tRp349
(I1
(tg49
I00
S'\xb8\xa3\x89@'
tbag45
(g46
(I0
tS'b'
tRp350
(I1
(tg49
I00
S'\x10o\x9f@'
tbag45
(g46
(I0
tS'b'
tRp351
(I1
(tg49
I00
S'G\xb4\x88@'
tbasg253
(lp352
I0
aI293
aI586
aI879
aI1172
aI1465
aI1758
aI2051
aI2344
aI2637
aI2930
aI3223
aI3516
aI3809
asg255
(lp353
F4.372899055480957
aF38.230388879776001
aF74.3855299949646
aF112.7558159828186
aF147.41332006454468
aF187.26236701011658
aF223.98739385604858
aF266.0420548915863
aF303.33898591995239
aF344.1863968372345
aF384.30198693275452
aF427.58870100975037
aF468.78763604164124
aF505.61919689178467
asg257
(lp354
I0
aI29300
aI58600
aI87900
aI117200
aI146500
aI175800
aI205100
aI234400
aI263700
aI293000
aI322300
aI351600
aI380900
asbaa(lp355
S'test_y_max_max_class'
p356
ag1
(g231
g3
NtRp357
(dp358
g234
(lp359
I0
aI1
aI2
aI3
aI4
aI5
aI6
aI7
aI8
aI9
aI10
aI11
aI12
aI13
asg236
S'This channel came from a layer called "y" of an MLP.\n<class \'pylearn2.models.mlp.Softmax\'>.get_monitoring_channels_from_state did not provide any further documentation for this channel.'
p360
sg237
(lp361
g45
(g46
(I0
tS'b'
tRp362
(I1
(tg49
I00
S'\n\x00\x00?'
tbag45
(g46
(I0
tS'b'
tRp363
(I1
(tg49
I00
S'9\xe6\x7f?'
tbag45
(g46
(I0
tS'b'
tRp364
(I1
(tg49
I00
S'f\x9e\x7f?'
tbag45
(g46
(I0
tS'b'
tRp365
(I1
(tg49
I00
S'\xe2D\x7f?'
tbag45
(g46
(I0
tS'b'
tRp366
(I1
(tg49
I00
S'\xf1`\x7f?'
tbag45
(g46
(I0
tS'b'
tRp367
(I1
(tg49
I00
S'\x8c\x1a\x7f?'
tbag45
(g46
(I0
tS'b'
tRp368
(I1
(tg49
I00
S'\xff\xce\x7f?'
tbag45
(g46
(I0
tS'b'
tRp369
(I1
(tg49
I00
S'\xa60\x7f?'
tbag45
(g46
(I0
tS'b'
tRp370
(I1
(tg49
I00
S'{r\x7f?'
tbag45
(g46
(I0
tS'b'
tRp371
(I1
(tg49
I00
S'\xe68~?'
tbag45
(g46
(I0
tS'b'
tRp372
(I1
(tg49
I00
S'6\x97\x7f?'
tbag45
(g46
(I0
tS'b'
tRp373
(I1
(tg49
I00
S'\xba\x84\x7f?'
tbag45
(g46
(I0
tS'b'
tRp374
(I1
(tg49
I00
S'\x11\xcc\x7f?'
tbag45
(g46
(I0
tS'b'
tRp375
(I1
(tg49
I00
S'")~?'
tbasg253
(lp376
I0
aI293
aI586
aI879
aI1172
aI1465
aI1758
aI2051
aI2344
aI2637
aI2930
aI3223
aI3516
aI3809
asg255
(lp377
F4.372899055480957
aF38.230388879776001
aF74.3855299949646
aF112.7558159828186
aF147.41332006454468
aF187.26236701011658
aF223.98739385604858
aF266.0420548915863
aF303.33898591995239
aF344.1863968372345
aF384.30198693275452
aF427.58870100975037
aF468.78763604164124
aF505.61919689178467
asg257
(lp378
I0
aI29300
aI58600
aI87900
aI117200
aI146500
aI175800
aI205100
aI234400
aI263700
aI293000
aI322300
aI351600
aI380900
asbaa(lp379
S'test_y_min_max_class'
p380
ag1
(g231
g3
NtRp381
(dp382
g234
(lp383
I0
aI1
aI2
aI3
aI4
aI5
aI6
aI7
aI8
aI9
aI10
aI11
aI12
aI13
asg236
S'This channel came from a layer called "y" of an MLP.\n<class \'pylearn2.models.mlp.Softmax\'>.get_monitoring_channels_from_state did not provide any further documentation for this channel.'
p384
sg237
(lp385
g45
(g46
(I0
tS'b'
tRp386
(I1
(tg49
I00
S'\n\x00\x00?'
tbag45
(g46
(I0
tS'b'
tRp387
(I1
(tg49
I00
S'<\x95\x02?'
tbag45
(g46
(I0
tS'b'
tRp388
(I1
(tg49
I00
S'\xaf\xf0\x01?'
tbag45
(g46
(I0
tS'b'
tRp389
(I1
(tg49
I00
S'(\x19\x02?'
tbag45
(g46
(I0
tS'b'
tRp390
(I1
(tg49
I00
S'~\xb1\x02?'
tbag45
(g46
(I0
tS'b'
tRp391
(I1
(tg49
I00
S'u3\x02?'
tbag45
(g46
(I0
tS'b'
tRp392
(I1
(tg49
I00
S'\xdd\x06\x03?'
tbag45
(g46
(I0
tS'b'
tRp393
(I1
(tg49
I00
S'\x08L\x02?'
tbag45
(g46
(I0
tS'b'
tRp394
(I1
(tg49
I00
S'!\xe8\x02?'
tbag45
(g46
(I0
tS'b'
tRp395
(I1
(tg49
I00
S'T\x84\x01?'
tbag45
(g46
(I0
tS'b'
tRp396
(I1
(tg49
I00
S'\xab\xd0\x02?'
tbag45
(g46
(I0
tS'b'
tRp397
(I1
(tg49
I00
S'@\xb8\x02?'
tbag45
(g46
(I0
tS'b'
tRp398
(I1
(tg49
I00
S's\x87\x02?'
tbag45
(g46
(I0
tS'b'
tRp399
(I1
(tg49
I00
S'\xa7\xaf\x01?'
tbasg253
(lp400
I0
aI293
aI586
aI879
aI1172
aI1465
aI1758
aI2051
aI2344
aI2637
aI2930
aI3223
aI3516
aI3809
asg255
(lp401
F4.372899055480957
aF38.230388879776001
aF74.3855299949646
aF112.7558159828186
aF147.41332006454468
aF187.26236701011658
aF223.98739385604858
aF266.0420548915863
aF303.33898591995239
aF344.1863968372345
aF384.30198693275452
aF427.58870100975037
aF468.78763604164124
aF505.61919689178467
asg257
(lp402
I0
aI29300
aI58600
aI87900
aI117200
aI146500
aI175800
aI205100
aI234400
aI263700
aI293000
aI322300
aI351600
aI380900
asbaa(lp403
S'test_y_row_norms_max'
p404
ag1
(g231
g3
NtRp405
(dp406
g234
(lp407
I0
aI1
aI2
aI3
aI4
aI5
aI6
aI7
aI8
aI9
aI10
aI11
aI12
aI13
asg236
S'This channel came from a layer called "y" of an MLP.\n<class \'pylearn2.models.mlp.Softmax\'>.get_monitoring_channels_from_state did not provide any further documentation for this channel.'
p408
sg237
(lp409
g45
(g46
(I0
tS'b'
tRp410
(I1
(tg49
I00
S'\x00\x00\x00\x00'
tbag45
(g46
(I0
tS'b'
tRp411
(I1
(tg49
I00
S'\x80\x81\xab?'
tbag45
(g46
(I0
tS'b'
tRp412
(I1
(tg49
I00
S'\xce\xf0\xfb?'
tbag45
(g46
(I0
tS'b'
tRp413
(I1
(tg49
I00
S'\x12D\xc4?'
tbag45
(g46
(I0
tS'b'
tRp414
(I1
(tg49
I00
S'\xcf\x1c\xdc?'
tbag45
(g46
(I0
tS'b'
tRp415
(I1
(tg49
I00
S'\xb2\xf0\xbd?'
tbag45
(g46
(I0
tS'b'
tRp416
(I1
(tg49
I00
S'_,\xb4?'
tbag45
(g46
(I0
tS'b'
tRp417
(I1
(tg49
I00
S'\xd4\xbd\xcf?'
tbag45
(g46
(I0
tS'b'
tRp418
(I1
(tg49
I00
S'e\x96\xd6?'
tbag45
(g46
(I0
tS'b'
tRp419
(I1
(tg49
I00
S'\xb9\x90\xb7?'
tbag45
(g46
(I0
tS'b'
tRp420
(I1
(tg49
I00
S'W:\xbf?'
tbag45
(g46
(I0
tS'b'
tRp421
(I1
(tg49
I00
S'\xd8\xb4\xcb?'
tbag45
(g46
(I0
tS'b'
tRp422
(I1
(tg49
I00
S'\xa2V\xd5?'
tbag45
(g46
(I0
tS'b'
tRp423
(I1
(tg49
I00
S'\x9a<\xfe?'
tbasg253
(lp424
I0
aI293
aI586
aI879
aI1172
aI1465
aI1758
aI2051
aI2344
aI2637
aI2930
aI3223
aI3516
aI3809
asg255
(lp425
F4.372899055480957
aF38.230388879776001
aF74.3855299949646
aF112.7558159828186
aF147.41332006454468
aF187.26236701011658
aF223.98739385604858
aF266.0420548915863
aF303.33898591995239
aF344.1863968372345
aF384.30198693275452
aF427.58870100975037
aF468.78763604164124
aF505.61919689178467
asg257
(lp426
I0
aI29300
aI58600
aI87900
aI117200
aI146500
aI175800
aI205100
aI234400
aI263700
aI293000
aI322300
aI351600
aI380900
asbaa(lp427
S'test_y_misclass'
p428
ag1
(g231
g3
NtRp429
(dp430
g234
(lp431
I0
aI1
aI2
aI3
aI4
aI5
aI6
aI7
aI8
aI9
aI10
aI11
aI12
aI13
asg236
S'This channel came from a layer called "y" of an MLP.\n<class \'pylearn2.models.mlp.Softmax\'>.get_monitoring_channels_from_state did not provide any further documentation for this channel.'
p432
sg237
(lp433
g45
(g46
(I0
tS'b'
tRp434
(I1
(tg49
I00
S'Q\xe5q>'
tbag45
(g46
(I0
tS'b'
tRp435
(I1
(tg49
I00
S'-\xfb\xaa>'
tbag45
(g46
(I0
tS'b'
tRp436
(I1
(tg49
I00
S'\xb9K\xb0>'
tbag45
(g46
(I0
tS'b'
tRp437
(I1
(tg49
I00
S'\x07\x00\xae>'
tbag45
(g46
(I0
tS'b'
tRp438
(I1
(tg49
I00
S'\x95\xbf\xa8>'
tbag45
(g46
(I0
tS'b'
tRp439
(I1
(tg49
I00
S'\xae\xec\xab>'
tbag45
(g46
(I0
tS'b'
tRp440
(I1
(tg49
I00
S'\xff\xf2\x9b>'
tbag45
(g46
(I0
tS'b'
tRp441
(I1
(tg49
I00
S'\xa7U\xcf>'
tbag45
(g46
(I0
tS'b'
tRp442
(I1
(tg49
I00
S'-\xe1\x90>'
tbag45
(g46
(I0
tS'b'
tRp443
(I1
(tg49
I00
S'\xf4\x01\xd2>'
tbag45
(g46
(I0
tS'b'
tRp444
(I1
(tg49
I00
S'\x17\x87\x99>'
tbag45
(g46
(I0
tS'b'
tRp445
(I1
(tg49
I00
S'\x9a\xd7\x99>'
tbag45
(g46
(I0
tS'b'
tRp446
(I1
(tg49
I00
S'6\xfb\xaf>'
tbag45
(g46
(I0
tS'b'
tRp447
(I1
(tg49
I00
S'\x9f\x85\xa7>'
tbasg253
(lp448
I0
aI293
aI586
aI879
aI1172
aI1465
aI1758
aI2051
aI2344
aI2637
aI2930
aI3223
aI3516
aI3809
asg255
(lp449
F4.372899055480957
aF38.230388879776001
aF74.3855299949646
aF112.7558159828186
aF147.41332006454468
aF187.26236701011658
aF223.98739385604858
aF266.0420548915863
aF303.33898591995239
aF344.1863968372345
aF384.30198693275452
aF427.58870100975037
aF468.78763604164124
aF505.61919689178467
asg257
(lp450
I0
aI29300
aI58600
aI87900
aI117200
aI146500
aI175800
aI205100
aI234400
aI263700
aI293000
aI322300
aI351600
aI380900
asbaa(lp451
S'test_y_col_norms_min'
p452
ag1
(g231
g3
NtRp453
(dp454
g234
(lp455
I0
aI1
aI2
aI3
aI4
aI5
aI6
aI7
aI8
aI9
aI10
aI11
aI12
aI13
asg236
S'This channel came from a layer called "y" of an MLP.\n<class \'pylearn2.models.mlp.Softmax\'>.get_monitoring_channels_from_state did not provide any further documentation for this channel.'
p456
sg237
(lp457
g45
(g46
(I0
tS'b'
tRp458
(I1
(tg49
I00
S'\x00\x00\x00\x00'
tbag45
(g46
(I0
tS'b'
tRp459
(I1
(tg49
I00
S'\xe5_\x97@'
tbag45
(g46
(I0
tS'b'
tRp460
(I1
(tg49
I00
S'\xcc\xd5\x8c@'
tbag45
(g46
(I0
tS'b'
tRp461
(I1
(tg49
I00
S'bP\x88@'
tbag45
(g46
(I0
tS'b'
tRp462
(I1
(tg49
I00
S'I\xd1\x91@'
tbag45
(g46
(I0
tS'b'
tRp463
(I1
(tg49
I00
S'W\xd2\x88@'
tbag45
(g46
(I0
tS'b'
tRp464
(I1
(tg49
I00
S'+\xe3\x8d@'
tbag45
(g46
(I0
tS'b'
tRp465
(I1
(tg49
I00
S'\n,\x8a@'
tbag45
(g46
(I0
tS'b'
tRp466
(I1
(tg49
I00
S'x\x93\x88@'
tbag45
(g46
(I0
tS'b'
tRp467
(I1
(tg49
I00
S'\xb9\xa8\x86@'
tbag45
(g46
(I0
tS'b'
tRp468
(I1
(tg49
I00
S'\x07\xb1\x86@'
tbag45
(g46
(I0
tS'b'
tRp469
(I1
(tg49
I00
S'\xb8\xa3\x89@'
tbag45
(g46
(I0
tS'b'
tRp470
(I1
(tg49
I00
S'\x10o\x9f@'
tbag45
(g46
(I0
tS'b'
tRp471
(I1
(tg49
I00
S'G\xb4\x88@'
tbasg253
(lp472
I0
aI293
aI586
aI879
aI1172
aI1465
aI1758
aI2051
aI2344
aI2637
aI2930
aI3223
aI3516
aI3809
asg255
(lp473
F4.372899055480957
aF38.230388879776001
aF74.3855299949646
aF112.7558159828186
aF147.41332006454468
aF187.26236701011658
aF223.98739385604858
aF266.0420548915863
aF303.33898591995239
aF344.1863968372345
aF384.30198693275452
aF427.58870100975037
aF468.78763604164124
aF505.61919689178467
asg257
(lp474
I0
aI29300
aI58600
aI87900
aI117200
aI146500
aI175800
aI205100
aI234400
aI263700
aI293000
aI322300
aI351600
aI380900
asbaa(lp475
S'test_y_row_norms_mean'
p476
ag1
(g231
g3
NtRp477
(dp478
g234
(lp479
I0
aI1
aI2
aI3
aI4
aI5
aI6
aI7
aI8
aI9
aI10
aI11
aI12
aI13
asg236
S'This channel came from a layer called "y" of an MLP.\n<class \'pylearn2.models.mlp.Softmax\'>.get_monitoring_channels_from_state did not provide any further documentation for this channel.'
p480
sg237
(lp481
g45
(g46
(I0
tS'b'
tRp482
(I1
(tg49
I00
S'\x00\x00\x00\x00'
tbag45
(g46
(I0
tS'b'
tRp483
(I1
(tg49
I00
S'\x8f\xc8\xfa>'
tbag45
(g46
(I0
tS'b'
tRp484
(I1
(tg49
I00
S'\xa32\xe3>'
tbag45
(g46
(I0
tS'b'
tRp485
(I1
(tg49
I00
S'\xf4\xcc\xda>'
tbag45
(g46
(I0
tS'b'
tRp486
(I1
(tg49
I00
S'\x01\x8d\xe6>'
tbag45
(g46
(I0
tS'b'
tRp487
(I1
(tg49
I00
S'h\x99\xdc>'
tbag45
(g46
(I0
tS'b'
tRp488
(I1
(tg49
I00
S'\xb9\xda\xe6>'
tbag45
(g46
(I0
tS'b'
tRp489
(I1
(tg49
I00
S'\x10\x1e\xdc>'
tbag45
(g46
(I0
tS'b'
tRp490
(I1
(tg49
I00
S'\x0c7\xdc>'
tbag45
(g46
(I0
tS'b'
tRp491
(I1
(tg49
I00
S'\x01V\xd4>'
tbag45
(g46
(I0
tS'b'
tRp492
(I1
(tg49
I00
S'\xc57\xd7>'
tbag45
(g46
(I0
tS'b'
tRp493
(I1
(tg49
I00
S'\x809\xda>'
tbag45
(g46
(I0
tS'b'
tRp494
(I1
(tg49
I00
S'\x02;\xfd>'
tbag45
(g46
(I0
tS'b'
tRp495
(I1
(tg49
I00
S'b\xff\xda>'
tbasg253
(lp496
I0
aI293
aI586
aI879
aI1172
aI1465
aI1758
aI2051
aI2344
aI2637
aI2930
aI3223
aI3516
aI3809
asg255
(lp497
F4.372899055480957
aF38.230388879776001
aF74.3855299949646
aF112.7558159828186
aF147.41332006454468
aF187.26236701011658
aF223.98739385604858
aF266.0420548915863
aF303.33898591995239
aF344.1863968372345
aF384.30198693275452
aF427.58870100975037
aF468.78763604164124
aF505.61919689178467
asg257
(lp498
I0
aI29300
aI58600
aI87900
aI117200
aI146500
aI175800
aI205100
aI234400
aI263700
aI293000
aI322300
aI351600
aI380900
asbaa(lp499
S'test_y_mean_max_class'
p500
ag1
(g231
g3
NtRp501
(dp502
g234
(lp503
I0
aI1
aI2
aI3
aI4
aI5
aI6
aI7
aI8
aI9
aI10
aI11
aI12
aI13
asg236
S'This channel came from a layer called "y" of an MLP.\n<class \'pylearn2.models.mlp.Softmax\'>.get_monitoring_channels_from_state did not provide any further documentation for this channel.'
p504
sg237
(lp505
g45
(g46
(I0
tS'b'
tRp506
(I1
(tg49
I00
S'\n\x00\x00?'
tbag45
(g46
(I0
tS'b'
tRp507
(I1
(tg49
I00
S'\xaf\xf4X?'
tbag45
(g46
(I0
tS'b'
tRp508
(I1
(tg49
I00
S'\x84yP?'
tbag45
(g46
(I0
tS'b'
tRp509
(I1
(tg49
I00
S'$cO?'
tbag45
(g46
(I0
tS'b'
tRp510
(I1
(tg49
I00
S'\xee\x0fW?'
tbag45
(g46
(I0
tS'b'
tRp511
(I1
(tg49
I00
S'X\xc0T?'
tbag45
(g46
(I0
tS'b'
tRp512
(I1
(tg49
I00
S'2\xbeZ?'
tbag45
(g46
(I0
tS'b'
tRp513
(I1
(tg49
I00
S'{oS?'
tbag45
(g46
(I0
tS'b'
tRp514
(I1
(tg49
I00
S'B7W?'
tbag45
(g46
(I0
tS'b'
tRp515
(I1
(tg49
I00
S'@\x06F?'
tbag45
(g46
(I0
tS'b'
tRp516
(I1
(tg49
I00
S'\xc4\xf1X?'
tbag45
(g46
(I0
tS'b'
tRp517
(I1
(tg49
I00
S'\xd8\xa9W?'
tbag45
(g46
(I0
tS'b'
tRp518
(I1
(tg49
I00
S'6\xf1U?'
tbag45
(g46
(I0
tS'b'
tRp519
(I1
(tg49
I00
S'\xf7\x81I?'
tbasg253
(lp520
I0
aI293
aI586
aI879
aI1172
aI1465
aI1758
aI2051
aI2344
aI2637
aI2930
aI3223
aI3516
aI3809
asg255
(lp521
F4.372899055480957
aF38.230388879776001
aF74.3855299949646
aF112.7558159828186
aF147.41332006454468
aF187.26236701011658
aF223.98739385604858
aF266.0420548915863
aF303.33898591995239
aF344.1863968372345
aF384.30198693275452
aF427.58870100975037
aF468.78763604164124
aF505.61919689178467
asg257
(lp522
I0
aI29300
aI58600
aI87900
aI117200
aI146500
aI175800
aI205100
aI234400
aI263700
aI293000
aI322300
aI351600
aI380900
asbaa(lp523
S'train_objective'
p524
ag1
(g231
g3
NtRp525
(dp526
g234
(lp527
I0
aI1
aI2
aI3
aI4
aI5
aI6
aI7
aI8
aI9
aI10
aI11
aI12
aI13
asg236
Nsg237
(lp528
g45
(g46
(I0
tS'b'
tRp529
(I1
(tg49
I00
S'!r1?'
tbag45
(g46
(I0
tS'b'
tRp530
(I1
(tg49
I00
S'\xdb\xc4q?'
tbag45
(g46
(I0
tS'b'
tRp531
(I1
(tg49
I00
S'\x98\xe3H?'
tbag45
(g46
(I0
tS'b'
tRp532
(I1
(tg49
I00
S'}\xa2J?'
tbag45
(g46
(I0
tS'b'
tRp533
(I1
(tg49
I00
S'o\x99X?'
tbag45
(g46
(I0
tS'b'
tRp534
(I1
(tg49
I00
S'\xc6\xbfG?'
tbag45
(g46
(I0
tS'b'
tRp535
(I1
(tg49
I00
S'\x9a\x06k?'
tbag45
(g46
(I0
tS'b'
tRp536
(I1
(tg49
I00
S'\x15|a?'
tbag45
(g46
(I0
tS'b'
tRp537
(I1
(tg49
I00
S'\xee\xcdS?'
tbag45
(g46
(I0
tS'b'
tRp538
(I1
(tg49
I00
S'\xdd|G?'
tbag45
(g46
(I0
tS'b'
tRp539
(I1
(tg49
I00
S'\xda\x1eJ?'
tbag45
(g46
(I0
tS'b'
tRp540
(I1
(tg49
I00
S'\x13\x85J?'
tbag45
(g46
(I0
tS'b'
tRp541
(I1
(tg49
I00
S"'\xf3h?"
tbag45
(g46
(I0
tS'b'
tRp542
(I1
(tg49
I00
S'B\xecR?'
tbasg253
(lp543
I0
aI293
aI586
aI879
aI1172
aI1465
aI1758
aI2051
aI2344
aI2637
aI2930
aI3223
aI3516
aI3809
asg255
(lp544
F4.372899055480957
aF38.230388879776001
aF74.3855299949646
aF112.7558159828186
aF147.41332006454468
aF187.26236701011658
aF223.98739385604858
aF266.0420548915863
aF303.33898591995239
aF344.1863968372345
aF384.30198693275452
aF427.58870100975037
aF468.78763604164124
aF505.61919689178467
asg257
(lp545
I0
aI29300
aI58600
aI87900
aI117200
aI146500
aI175800
aI205100
aI234400
aI263700
aI293000
aI322300
aI351600
aI380900
asbaa(lp546
S'train_y_col_norms_max'
p547
ag1
(g231
g3
NtRp548
(dp549
g234
(lp550
I0
aI1
aI2
aI3
aI4
aI5
aI6
aI7
aI8
aI9
aI10
aI11
aI12
aI13
asg236
g264
sg237
(lp551
g45
(g46
(I0
tS'b'
tRp552
(I1
(tg49
I00
S'\x00\x00\x00\x00'
tbag45
(g46
(I0
tS'b'
tRp553
(I1
(tg49
I00
S'\xa9_\x97@'
tbag45
(g46
(I0
tS'b'
tRp554
(I1
(tg49
I00
S'\xdf\xd5\x8c@'
tbag45
(g46
(I0
tS'b'
tRp555
(I1
(tg49
I00
S'TP\x88@'
tbag45
(g46
(I0
tS'b'
tRp556
(I1
(tg49
I00
S'L\xd1\x91@'
tbag45
(g46
(I0
tS'b'
tRp557
(I1
(tg49
I00
S'3\xd2\x88@'
tbag45
(g46
(I0
tS'b'
tRp558
(I1
(tg49
I00
S'=\xe3\x8d@'
tbag45
(g46
(I0
tS'b'
tRp559
(I1
(tg49
I00
S'%,\x8a@'
tbag45
(g46
(I0
tS'b'
tRp560
(I1
(tg49
I00
S'\x92\x93\x88@'
tbag45
(g46
(I0
tS'b'
tRp561
(I1
(tg49
I00
S'\xbd\xa8\x86@'
tbag45
(g46
(I0
tS'b'
tRp562
(I1
(tg49
I00
S'\xe2\xb0\x86@'
tbag45
(g46
(I0
tS'b'
tRp563
(I1
(tg49
I00
S'\xac\xa3\x89@'
tbag45
(g46
(I0
tS'b'
tRp564
(I1
(tg49
I00
S'\x1bo\x9f@'
tbag45
(g46
(I0
tS'b'
tRp565
(I1
(tg49
I00
S'T\xb4\x88@'
tbasg253
(lp566
I0
aI293
aI586
aI879
aI1172
aI1465
aI1758
aI2051
aI2344
aI2637
aI2930
aI3223
aI3516
aI3809
asg255
(lp567
F4.372899055480957
aF38.230388879776001
aF74.3855299949646
aF112.7558159828186
aF147.41332006454468
aF187.26236701011658
aF223.98739385604858
aF266.0420548915863
aF303.33898591995239
aF344.1863968372345
aF384.30198693275452
aF427.58870100975037
aF468.78763604164124
aF505.61919689178467
asg257
(lp568
I0
aI29300
aI58600
aI87900
aI117200
aI146500
aI175800
aI205100
aI234400
aI263700
aI293000
aI322300
aI351600
aI380900
asbaa(lp569
S'train_y_row_norms_min'
p570
ag1
(g231
g3
NtRp571
(dp572
g234
(lp573
I0
aI1
aI2
aI3
aI4
aI5
aI6
aI7
aI8
aI9
aI10
aI11
aI12
aI13
asg236
g288
sg237
(lp574
g45
(g46
(I0
tS'b'
tRp575
(I1
(tg49
I00
S'\x00\x00\x00\x00'
tbag45
(g46
(I0
tS'b'
tRp576
(I1
(tg49
I00
S'8\xbd\x8c<'
tbag45
(g46
(I0
tS'b'
tRp577
(I1
(tg49
I00
S'\x1d\x906<'
tbag45
(g46
(I0
tS'b'
tRp578
(I1
(tg49
I00
S'\x8er\x1c<'
tbag45
(g46
(I0
tS'b'
tRp579
(I1
(tg49
I00
S'\xdfd\x9c:'
tbag45
(g46
(I0
tS'b'
tRp580
(I1
(tg49
I00
S'a\r\x82<'
tbag45
(g46
(I0
tS'b'
tRp581
(I1
(tg49
I00
S'\xbc\xb8\xb2;'
tbag45
(g46
(I0
tS'b'
tRp582
(I1
(tg49
I00
S'\xfa{\xd9:'
tbag45
(g46
(I0
tS'b'
tRp583
(I1
(tg49
I00
S'\xb3\x89\xc2;'
tbag45
(g46
(I0
tS'b'
tRp584
(I1
(tg49
I00
S'\x11\x1b\n<'
tbag45
(g46
(I0
tS'b'
tRp585
(I1
(tg49
I00
S'#\xac\xd4;'
tbag45
(g46
(I0
tS'b'
tRp586
(I1
(tg49
I00
S'\xdc\x05\x9b;'
tbag45
(g46
(I0
tS'b'
tRp587
(I1
(tg49
I00
S'^O\x00<'
tbag45
(g46
(I0
tS'b'
tRp588
(I1
(tg49
I00
S'\xa5\xf8\xca;'
tbasg253
(lp589
I0
aI293
aI586
aI879
aI1172
aI1465
aI1758
aI2051
aI2344
aI2637
aI2930
aI3223
aI3516
aI3809
asg255
(lp590
F4.372899055480957
aF38.230388879776001
aF74.3855299949646
aF112.7558159828186
aF147.41332006454468
aF187.26236701011658
aF223.98739385604858
aF266.0420548915863
aF303.33898591995239
aF344.1863968372345
aF384.30198693275452
aF427.58870100975037
aF468.78763604164124
aF505.61919689178467
asg257
(lp591
I0
aI29300
aI58600
aI87900
aI117200
aI146500
aI175800
aI205100
aI234400
aI263700
aI293000
aI322300
aI351600
aI380900
asbaa(lp592
S'train_y_nll'
p593
ag1
(g231
g3
NtRp594
(dp595
g234
(lp596
I0
aI1
aI2
aI3
aI4
aI5
aI6
aI7
aI8
aI9
aI10
aI11
aI12
aI13
asg236
g312
sg237
(lp597
g45
(g46
(I0
tS'b'
tRp598
(I1
(tg49
I00
S'!r1?'
tbag45
(g46
(I0
tS'b'
tRp599
(I1
(tg49
I00
S'\xdb\xc4q?'
tbag45
(g46
(I0
tS'b'
tRp600
(I1
(tg49
I00
S'\x98\xe3H?'
tbag45
(g46
(I0
tS'b'
tRp601
(I1
(tg49
I00
S'}\xa2J?'
tbag45
(g46
(I0
tS'b'
tRp602
(I1
(tg49
I00
S'o\x99X?'
tbag45
(g46
(I0
tS'b'
tRp603
(I1
(tg49
I00
S'\xc6\xbfG?'
tbag45
(g46
(I0
tS'b'
tRp604
(I1
(tg49
I00
S'\x9a\x06k?'
tbag45
(g46
(I0
tS'b'
tRp605
(I1
(tg49
I00
S'\x15|a?'
tbag45
(g46
(I0
tS'b'
tRp606
(I1
(tg49
I00
S'\xee\xcdS?'
tbag45
(g46
(I0
tS'b'
tRp607
(I1
(tg49
I00
S'\xdd|G?'
tbag45
(g46
(I0
tS'b'
tRp608
(I1
(tg49
I00
S'\xda\x1eJ?'
tbag45
(g46
(I0
tS'b'
tRp609
(I1
(tg49
I00
S'\x13\x85J?'
tbag45
(g46
(I0
tS'b'
tRp610
(I1
(tg49
I00
S"'\xf3h?"
tbag45
(g46
(I0
tS'b'
tRp611
(I1
(tg49
I00
S'B\xecR?'
tbasg253
(lp612
I0
aI293
aI586
aI879
aI1172
aI1465
aI1758
aI2051
aI2344
aI2637
aI2930
aI3223
aI3516
aI3809
asg255
(lp613
F4.372899055480957
aF38.230388879776001
aF74.3855299949646
aF112.7558159828186
aF147.41332006454468
aF187.26236701011658
aF223.98739385604858
aF266.0420548915863
aF303.33898591995239
aF344.1863968372345
aF384.30198693275452
aF427.58870100975037
aF468.78763604164124
aF505.61919689178467
asg257
(lp614
I0
aI29300
aI58600
aI87900
aI117200
aI146500
aI175800
aI205100
aI234400
aI263700
aI293000
aI322300
aI351600
aI380900
asbaa(lp615
S'train_y_col_norms_mean'
p616
ag1
(g231
g3
NtRp617
(dp618
g234
(lp619
I0
aI1
aI2
aI3
aI4
aI5
aI6
aI7
aI8
aI9
aI10
aI11
aI12
aI13
asg236
g336
sg237
(lp620
g45
(g46
(I0
tS'b'
tRp621
(I1
(tg49
I00
S'\x00\x00\x00\x00'
tbag45
(g46
(I0
tS'b'
tRp622
(I1
(tg49
I00
S'\xa9_\x97@'
tbag45
(g46
(I0
tS'b'
tRp623
(I1
(tg49
I00
S'\xdf\xd5\x8c@'
tbag45
(g46
(I0
tS'b'
tRp624
(I1
(tg49
I00
S'TP\x88@'
tbag45
(g46
(I0
tS'b'
tRp625
(I1
(tg49
I00
S'L\xd1\x91@'
tbag45
(g46
(I0
tS'b'
tRp626
(I1
(tg49
I00
S'3\xd2\x88@'
tbag45
(g46
(I0
tS'b'
tRp627
(I1
(tg49
I00
S'=\xe3\x8d@'
tbag45
(g46
(I0
tS'b'
tRp628
(I1
(tg49
I00
S'%,\x8a@'
tbag45
(g46
(I0
tS'b'
tRp629
(I1
(tg49
I00
S'\x92\x93\x88@'
tbag45
(g46
(I0
tS'b'
tRp630
(I1
(tg49
I00
S'\xbc\xa8\x86@'
tbag45
(g46
(I0
tS'b'
tRp631
(I1
(tg49
I00
S'\xe2\xb0\x86@'
tbag45
(g46
(I0
tS'b'
tRp632
(I1
(tg49
I00
S'\xac\xa3\x89@'
tbag45
(g46
(I0
tS'b'
tRp633
(I1
(tg49
I00
S'\x1bo\x9f@'
tbag45
(g46
(I0
tS'b'
tRp634
(I1
(tg49
I00
S'T\xb4\x88@'
tbasg253
(lp635
I0
aI293
aI586
aI879
aI1172
aI1465
aI1758
aI2051
aI2344
aI2637
aI2930
aI3223
aI3516
aI3809
asg255
(lp636
F4.372899055480957
aF38.230388879776001
aF74.3855299949646
aF112.7558159828186
aF147.41332006454468
aF187.26236701011658
aF223.98739385604858
aF266.0420548915863
aF303.33898591995239
aF344.1863968372345
aF384.30198693275452
aF427.58870100975037
aF468.78763604164124
aF505.61919689178467
asg257
(lp637
I0
aI29300
aI58600
aI87900
aI117200
aI146500
aI175800
aI205100
aI234400
aI263700
aI293000
aI322300
aI351600
aI380900
asbaa(lp638
S'train_y_max_max_class'
p639
ag1
(g231
g3
NtRp640
(dp641
g234
(lp642
I0
aI1
aI2
aI3
aI4
aI5
aI6
aI7
aI8
aI9
aI10
aI11
aI12
aI13
asg236
g360
sg237
(lp643
g45
(g46
(I0
tS'b'
tRp644
(I1
(tg49
I00
S'\xea\xff\xff>'
tbag45
(g46
(I0
tS'b'
tRp645
(I1
(tg49
I00
S'\xca\xe2\x7f?'
tbag45
(g46
(I0
tS'b'
tRp646
(I1
(tg49
I00
S'\x9b\x96\x7f?'
tbag45
(g46
(I0
tS'b'
tRp647
(I1
(tg49
I00
S'$L\x7f?'
tbag45
(g46
(I0
tS'b'
tRp648
(I1
(tg49
I00
S'F\\\x7f?'
tbag45
(g46
(I0
tS'b'
tRp649
(I1
(tg49
I00
S'\n)\x7f?'
tbag45
(g46
(I0
tS'b'
tRp650
(I1
(tg49
I00
S'\xa6\xd1\x7f?'
tbag45
(g46
(I0
tS'b'
tRp651
(I1
(tg49
I00
S'\xb65\x7f?'
tbag45
(g46
(I0
tS'b'
tRp652
(I1
(tg49
I00
S'vn\x7f?'
tbag45
(g46
(I0
tS'b'
tRp653
(I1
(tg49
I00
S'\xc68~?'
tbag45
(g46
(I0
tS'b'
tRp654
(I1
(tg49
I00
S'\xa6\x90\x7f?'
tbag45
(g46
(I0
tS'b'
tRp655
(I1
(tg49
I00
S':\x82\x7f?'
tbag45
(g46
(I0
tS'b'
tRp656
(I1
(tg49
I00
S'\xda\xd0\x7f?'
tbag45
(g46
(I0
tS'b'
tRp657
(I1
(tg49
I00
S'1?~?'
tbasg253
(lp658
I0
aI293
aI586
aI879
aI1172
aI1465
aI1758
aI2051
aI2344
aI2637
aI2930
aI3223
aI3516
aI3809
asg255
(lp659
F4.372899055480957
aF38.230388879776001
aF74.3855299949646
aF112.7558159828186
aF147.41332006454468
aF187.26236701011658
aF223.98739385604858
aF266.0420548915863
aF303.33898591995239
aF344.1863968372345
aF384.30198693275452
aF427.58870100975037
aF468.78763604164124
aF505.61919689178467
asg257
(lp660
I0
aI29300
aI58600
aI87900
aI117200
aI146500
aI175800
aI205100
aI234400
aI263700
aI293000
aI322300
aI351600
aI380900
asbaa(lp661
S'train_y_min_max_class'
p662
ag1
(g231
g3
NtRp663
(dp664
g234
(lp665
I0
aI1
aI2
aI3
aI4
aI5
aI6
aI7
aI8
aI9
aI10
aI11
aI12
aI13
asg236
g384
sg237
(lp666
g45
(g46
(I0
tS'b'
tRp667
(I1
(tg49
I00
S'\xea\xff\xff>'
tbag45
(g46
(I0
tS'b'
tRp668
(I1
(tg49
I00
S'\xa7\x85\x02?'
tbag45
(g46
(I0
tS'b'
tRp669
(I1
(tg49
I00
S'?\x00\x02?'
tbag45
(g46
(I0
tS'b'
tRp670
(I1
(tg49
I00
S'\xb7\xe9\x01?'
tbag45
(g46
(I0
tS'b'
tRp671
(I1
(tg49
I00
S'S=\x03?'
tbag45
(g46
(I0
tS'b'
tRp672
(I1
(tg49
I00
S'gH\x02?'
tbag45
(g46
(I0
tS'b'
tRp673
(I1
(tg49
I00
S'6/\x03?'
tbag45
(g46
(I0
tS'b'
tRp674
(I1
(tg49
I00
S'\xde2\x02?'
tbag45
(g46
(I0
tS'b'
tRp675
(I1
(tg49
I00
S'}\x9c\x02?'
tbag45
(g46
(I0
tS'b'
tRp676
(I1
(tg49
I00
S'\x84\x9e\x01?'
tbag45
(g46
(I0
tS'b'
tRp677
(I1
(tg49
I00
S'\xeb\xc5\x02?'
tbag45
(g46
(I0
tS'b'
tRp678
(I1
(tg49
I00
S'\x1b\x9d\x02?'
tbag45
(g46
(I0
tS'b'
tRp679
(I1
(tg49
I00
S'\xab\x91\x02?'
tbag45
(g46
(I0
tS'b'
tRp680
(I1
(tg49
I00
S'u\xca\x01?'
tbasg253
(lp681
I0
aI293
aI586
aI879
aI1172
aI1465
aI1758
aI2051
aI2344
aI2637
aI2930
aI3223
aI3516
aI3809
asg255
(lp682
F4.372899055480957
aF38.230388879776001
aF74.3855299949646
aF112.7558159828186
aF147.41332006454468
aF187.26236701011658
aF223.98739385604858
aF266.0420548915863
aF303.33898591995239
aF344.1863968372345
aF384.30198693275452
aF427.58870100975037
aF468.78763604164124
aF505.61919689178467
asg257
(lp683
I0
aI29300
aI58600
aI87900
aI117200
aI146500
aI175800
aI205100
aI234400
aI263700
aI293000
aI322300
aI351600
aI380900
asbaa(lp684
S'train_y_row_norms_max'
p685
ag1
(g231
g3
NtRp686
(dp687
g234
(lp688
I0
aI1
aI2
aI3
aI4
aI5
aI6
aI7
aI8
aI9
aI10
aI11
aI12
aI13
asg236
g408
sg237
(lp689
g45
(g46
(I0
tS'b'
tRp690
(I1
(tg49
I00
S'\x00\x00\x00\x00'
tbag45
(g46
(I0
tS'b'
tRp691
(I1
(tg49
I00
S'r\x81\xab?'
tbag45
(g46
(I0
tS'b'
tRp692
(I1
(tg49
I00
S'\xa5\xf0\xfb?'
tbag45
(g46
(I0
tS'b'
tRp693
(I1
(tg49
I00
S'\x10D\xc4?'
tbag45
(g46
(I0
tS'b'
tRp694
(I1
(tg49
I00
S'\xbb\x1c\xdc?'
tbag45
(g46
(I0
tS'b'
tRp695
(I1
(tg49
I00
S'\x94\xf0\xbd?'
tbag45
(g46
(I0
tS'b'
tRp696
(I1
(tg49
I00
S'\x83,\xb4?'
tbag45
(g46
(I0
tS'b'
tRp697
(I1
(tg49
I00
S'\xdb\xbd\xcf?'
tbag45
(g46
(I0
tS'b'
tRp698
(I1
(tg49
I00
S'W\x96\xd6?'
tbag45
(g46
(I0
tS'b'
tRp699
(I1
(tg49
I00
S'\x8b\x90\xb7?'
tbag45
(g46
(I0
tS'b'
tRp700
(I1
(tg49
I00
S'E:\xbf?'
tbag45
(g46
(I0
tS'b'
tRp701
(I1
(tg49
I00
S'\x11\xb5\xcb?'
tbag45
(g46
(I0
tS'b'
tRp702
(I1
(tg49
I00
S'\xbcV\xd5?'
tbag45
(g46
(I0
tS'b'
tRp703
(I1
(tg49
I00
S'\xd8<\xfe?'
tbasg253
(lp704
I0
aI293
aI586
aI879
aI1172
aI1465
aI1758
aI2051
aI2344
aI2637
aI2930
aI3223
aI3516
aI3809
asg255
(lp705
F4.372899055480957
aF38.230388879776001
aF74.3855299949646
aF112.7558159828186
aF147.41332006454468
aF187.26236701011658
aF223.98739385604858
aF266.0420548915863
aF303.33898591995239
aF344.1863968372345
aF384.30198693275452
aF427.58870100975037
aF468.78763604164124
aF505.61919689178467
asg257
(lp706
I0
aI29300
aI58600
aI87900
aI117200
aI146500
aI175800
aI205100
aI234400
aI263700
aI293000
aI322300
aI351600
aI380900
asbaa(lp707
S'train_y_misclass'
p708
ag1
(g231
g3
NtRp709
(dp710
g234
(lp711
I0
aI1
aI2
aI3
aI4
aI5
aI6
aI7
aI8
aI9
aI10
aI11
aI12
aI13
asg236
g432
sg237
(lp712
g45
(g46
(I0
tS'b'
tRp713
(I1
(tg49
I00
S'\x91\xc0w>'
tbag45
(g46
(I0
tS'b'
tRp714
(I1
(tg49
I00
S']\xc3\xb2>'
tbag45
(g46
(I0
tS'b'
tRp715
(I1
(tg49
I00
S'\x04\xc8\xa9>'
tbag45
(g46
(I0
tS'b'
tRp716
(I1
(tg49
I00
S'\xbc=\xad>'
tbag45
(g46
(I0
tS'b'
tRp717
(I1
(tg49
I00
S'\xbc\x9f\xa9>'
tbag45
(g46
(I0
tS'b'
tRp718
(I1
(tg49
I00
S'\x17\xda\xa0>'
tbag45
(g46
(I0
tS'b'
tRp719
(I1
(tg49
I00
S'\x7fk\xac>'
tbag45
(g46
(I0
tS'b'
tRp720
(I1
(tg49
I00
S':\xba\xbb>'
tbag45
(g46
(I0
tS'b'
tRp721
(I1
(tg49
I00
S'\xc2X\xa4>'
tbag45
(g46
(I0
tS'b'
tRp722
(I1
(tg49
I00
S'r4\xbf>'
tbag45
(g46
(I0
tS'b'
tRp723
(I1
(tg49
I00
S'\x0c\xaa\x96>'
tbag45
(g46
(I0
tS'b'
tRp724
(I1
(tg49
I00
S'\x966\x9e>'
tbag45
(g46
(I0
tS'b'
tRp725
(I1
(tg49
I00
S'S\xbf\xb6>'
tbag45
(g46
(I0
tS'b'
tRp726
(I1
(tg49
I00
S'\x95\xb4\xc5>'
tbasg253
(lp727
I0
aI293
aI586
aI879
aI1172
aI1465
aI1758
aI2051
aI2344
aI2637
aI2930
aI3223
aI3516
aI3809
asg255
(lp728
F4.372899055480957
aF38.230388879776001
aF74.3855299949646
aF112.7558159828186
aF147.41332006454468
aF187.26236701011658
aF223.98739385604858
aF266.0420548915863
aF303.33898591995239
aF344.1863968372345
aF384.30198693275452
aF427.58870100975037
aF468.78763604164124
aF505.61919689178467
asg257
(lp729
I0
aI29300
aI58600
aI87900
aI117200
aI146500
aI175800
aI205100
aI234400
aI263700
aI293000
aI322300
aI351600
aI380900
asbaa(lp730
S'train_y_col_norms_min'
p731
ag1
(g231
g3
NtRp732
(dp733
g234
(lp734
I0
aI1
aI2
aI3
aI4
aI5
aI6
aI7
aI8
aI9
aI10
aI11
aI12
aI13
asg236
g456
sg237
(lp735
g45
(g46
(I0
tS'b'
tRp736
(I1
(tg49
I00
S'\x00\x00\x00\x00'
tbag45
(g46
(I0
tS'b'
tRp737
(I1
(tg49
I00
S'\xa9_\x97@'
tbag45
(g46
(I0
tS'b'
tRp738
(I1
(tg49
I00
S'\xdf\xd5\x8c@'
tbag45
(g46
(I0
tS'b'
tRp739
(I1
(tg49
I00
S'TP\x88@'
tbag45
(g46
(I0
tS'b'
tRp740
(I1
(tg49
I00
S'L\xd1\x91@'
tbag45
(g46
(I0
tS'b'
tRp741
(I1
(tg49
I00
S'3\xd2\x88@'
tbag45
(g46
(I0
tS'b'
tRp742
(I1
(tg49
I00
S'=\xe3\x8d@'
tbag45
(g46
(I0
tS'b'
tRp743
(I1
(tg49
I00
S'%,\x8a@'
tbag45
(g46
(I0
tS'b'
tRp744
(I1
(tg49
I00
S'\x92\x93\x88@'
tbag45
(g46
(I0
tS'b'
tRp745
(I1
(tg49
I00
S'\xbd\xa8\x86@'
tbag45
(g46
(I0
tS'b'
tRp746
(I1
(tg49
I00
S'\xe2\xb0\x86@'
tbag45
(g46
(I0
tS'b'
tRp747
(I1
(tg49
I00
S'\xac\xa3\x89@'
tbag45
(g46
(I0
tS'b'
tRp748
(I1
(tg49
I00
S'\x1bo\x9f@'
tbag45
(g46
(I0
tS'b'
tRp749
(I1
(tg49
I00
S'T\xb4\x88@'
tbasg253
(lp750
I0
aI293
aI586
aI879
aI1172
aI1465
aI1758
aI2051
aI2344
aI2637
aI2930
aI3223
aI3516
aI3809
asg255
(lp751
F4.372899055480957
aF38.230388879776001
aF74.3855299949646
aF112.7558159828186
aF147.41332006454468
aF187.26236701011658
aF223.98739385604858
aF266.0420548915863
aF303.33898591995239
aF344.1863968372345
aF384.30198693275452
aF427.58870100975037
aF468.78763604164124
aF505.61919689178467
asg257
(lp752
I0
aI29300
aI58600
aI87900
aI117200
aI146500
aI175800
aI205100
aI234400
aI263700
aI293000
aI322300
aI351600
aI380900
asbaa(lp753
S'train_y_row_norms_mean'
p754
ag1
(g231
g3
NtRp755
(dp756
g234
(lp757
I0
aI1
aI2
aI3
aI4
aI5
aI6
aI7
aI8
aI9
aI10
aI11
aI12
aI13
asg236
g480
sg237
(lp758
g45
(g46
(I0
tS'b'
tRp759
(I1
(tg49
I00
S'\x00\x00\x00\x00'
tbag45
(g46
(I0
tS'b'
tRp760
(I1
(tg49
I00
S'j\xc8\xfa>'
tbag45
(g46
(I0
tS'b'
tRp761
(I1
(tg49
I00
S'\xc52\xe3>'
tbag45
(g46
(I0
tS'b'
tRp762
(I1
(tg49
I00
S'\x08\xcd\xda>'
tbag45
(g46
(I0
tS'b'
tRp763
(I1
(tg49
I00
S'\x1c\x8d\xe6>'
tbag45
(g46
(I0
tS'b'
tRp764
(I1
(tg49
I00
S'q\x99\xdc>'
tbag45
(g46
(I0
tS'b'
tRp765
(I1
(tg49
I00
S'\xc6\xda\xe6>'
tbag45
(g46
(I0
tS'b'
tRp766
(I1
(tg49
I00
S'\xec\x1d\xdc>'
tbag45
(g46
(I0
tS'b'
tRp767
(I1
(tg49
I00
S'\r7\xdc>'
tbag45
(g46
(I0
tS'b'
tRp768
(I1
(tg49
I00
S'\x0bV\xd4>'
tbag45
(g46
(I0
tS'b'
tRp769
(I1
(tg49
I00
S'\x877\xd7>'
tbag45
(g46
(I0
tS'b'
tRp770
(I1
(tg49
I00
S'\xb29\xda>'
tbag45
(g46
(I0
tS'b'
tRp771
(I1
(tg49
I00
S',;\xfd>'
tbag45
(g46
(I0
tS'b'
tRp772
(I1
(tg49
I00
S'w\xff\xda>'
tbasg253
(lp773
I0
aI293
aI586
aI879
aI1172
aI1465
aI1758
aI2051
aI2344
aI2637
aI2930
aI3223
aI3516
aI3809
asg255
(lp774
F4.372899055480957
aF38.230388879776001
aF74.3855299949646
aF112.7558159828186
aF147.41332006454468
aF187.26236701011658
aF223.98739385604858
aF266.0420548915863
aF303.33898591995239
aF344.1863968372345
aF384.30198693275452
aF427.58870100975037
aF468.78763604164124
aF505.61919689178467
asg257
(lp775
I0
aI29300
aI58600
aI87900
aI117200
aI146500
aI175800
aI205100
aI234400
aI263700
aI293000
aI322300
aI351600
aI380900
asbaa(lp776
S'train_y_mean_max_class'
p777
ag1
(g231
g3
NtRp778
(dp779
g234
(lp780
I0
aI1
aI2
aI3
aI4
aI5
aI6
aI7
aI8
aI9
aI10
aI11
aI12
aI13
asg236
g504
sg237
(lp781
g45
(g46
(I0
tS'b'
tRp782
(I1
(tg49
I00
S'\xea\xff\xff>'
tbag45
(g46
(I0
tS'b'
tRp783
(I1
(tg49
I00
S'\xa0\xa4X?'
tbag45
(g46
(I0
tS'b'
tRp784
(I1
(tg49
I00
S'\x86MP?'
tbag45
(g46
(I0
tS'b'
tRp785
(I1
(tg49
I00
S'\n\xb1O?'
tbag45
(g46
(I0
tS'b'
tRp786
(I1
(tg49
I00
S'\xda:W?'
tbag45
(g46
(I0
tS'b'
tRp787
(I1
(tg49
I00
S'9\xe7T?'
tbag45
(g46
(I0
tS'b'
tRp788
(I1
(tg49
I00
S'\xc8\xbfZ?'
tbag45
(g46
(I0
tS'b'
tRp789
(I1
(tg49
I00
S"{'S?"
tbag45
(g46
(I0
tS'b'
tRp790
(I1
(tg49
I00
S'\xdbDW?'
tbag45
(g46
(I0
tS'b'
tRp791
(I1
(tg49
I00
S'k$F?'
tbag45
(g46
(I0
tS'b'
tRp792
(I1
(tg49
I00
S'\xd3\x17X?'
tbag45
(g46
(I0
tS'b'
tRp793
(I1
(tg49
I00
S' \\W?'
tbag45
(g46
(I0
tS'b'
tRp794
(I1
(tg49
I00
S'R\x02V?'
tbag45
(g46
(I0
tS'b'
tRp795
(I1
(tg49
I00
S'gII?'
tbasg253
(lp796
I0
aI293
aI586
aI879
aI1172
aI1465
aI1758
aI2051
aI2344
aI2637
aI2930
aI3223
aI3516
aI3809
asg255
(lp797
F4.372899055480957
aF38.230388879776001
aF74.3855299949646
aF112.7558159828186
aF147.41332006454468
aF187.26236701011658
aF223.98739385604858
aF266.0420548915863
aF303.33898591995239
aF344.1863968372345
aF384.30198693275452
aF427.58870100975037
aF468.78763604164124
aF505.61919689178467
asg257
(lp798
I0
aI29300
aI58600
aI87900
aI117200
aI146500
aI175800
aI205100
aI234400
aI263700
aI293000
aI322300
aI351600
aI380900
asbaa(lp799
S'valid_objective'
p800
ag1
(g231
g3
NtRp801
(dp802
g234
(lp803
I0
aI1
aI2
aI3
aI4
aI5
aI6
aI7
aI8
aI9
aI10
aI11
aI12
aI13
asg236
Nsg237
(lp804
g45
(g46
(I0
tS'b'
tRp805
(I1
(tg49
I00
S'\x13r1?'
tbag45
(g46
(I0
tS'b'
tRp806
(I1
(tg49
I00
S'\xaf8F?'
tbag45
(g46
(I0
tS'b'
tRp807
(I1
(tg49
I00
S'\x01\xbfG?'
tbag45
(g46
(I0
tS'b'
tRp808
(I1
(tg49
I00
S'\xa4\xa3Q?'
tbag45
(g46
(I0
tS'b'
tRp809
(I1
(tg49
I00
S'\xa3\xbdQ?'
tbag45
(g46
(I0
tS'b'
tRp810
(I1
(tg49
I00
S'\xe0\r^?'
tbag45
(g46
(I0
tS'b'
tRp811
(I1
(tg49
I00
S'\x9erI?'
tbag45
(g46
(I0
tS'b'
tRp812
(I1
(tg49
I00
S'\xadf}?'
tbag45
(g46
(I0
tS'b'
tRp813
(I1
(tg49
I00
S'\xe6\xd14?'
tbag45
(g46
(I0
tS'b'
tRp814
(I1
(tg49
I00
S'@\x83e?'
tbag45
(g46
(I0
tS'b'
tRp815
(I1
(tg49
I00
S'\xb3\xc5??'
tbag45
(g46
(I0
tS'b'
tRp816
(I1
(tg49
I00
S'\xaa%??'
tbag45
(g46
(I0
tS'b'
tRp817
(I1
(tg49
I00
S'\xcf\xd2T?'
tbag45
(g46
(I0
tS'b'
tRp818
(I1
(tg49
I00
S'\x8a/*?'
tbasg253
(lp819
I0
aI293
aI586
aI879
aI1172
aI1465
aI1758
aI2051
aI2344
aI2637
aI2930
aI3223
aI3516
aI3809
asg255
(lp820
F4.372899055480957
aF38.230388879776001
aF74.3855299949646
aF112.7558159828186
aF147.41332006454468
aF187.26236701011658
aF223.98739385604858
aF266.0420548915863
aF303.33898591995239
aF344.1863968372345
aF384.30198693275452
aF427.58870100975037
aF468.78763604164124
aF505.61919689178467
asg257
(lp821
I0
aI29300
aI58600
aI87900
aI117200
aI146500
aI175800
aI205100
aI234400
aI263700
aI293000
aI322300
aI351600
aI380900
asbaa(lp822
S'valid_y_col_norms_max'
p823
ag1
(g231
g3
NtRp824
(dp825
g234
(lp826
I0
aI1
aI2
aI3
aI4
aI5
aI6
aI7
aI8
aI9
aI10
aI11
aI12
aI13
asg236
g264
sg237
(lp827
g45
(g46
(I0
tS'b'
tRp828
(I1
(tg49
I00
S'\x00\x00\x00\x00'
tbag45
(g46
(I0
tS'b'
tRp829
(I1
(tg49
I00
S'\xce_\x97@'
tbag45
(g46
(I0
tS'b'
tRp830
(I1
(tg49
I00
S'\xd1\xd5\x8c@'
tbag45
(g46
(I0
tS'b'
tRp831
(I1
(tg49
I00
S'dP\x88@'
tbag45
(g46
(I0
tS'b'
tRp832
(I1
(tg49
I00
S'L\xd1\x91@'
tbag45
(g46
(I0
tS'b'
tRp833
(I1
(tg49
I00
S'G\xd2\x88@'
tbag45
(g46
(I0
tS'b'
tRp834
(I1
(tg49
I00
S'*\xe3\x8d@'
tbag45
(g46
(I0
tS'b'
tRp835
(I1
(tg49
I00
S'\x11,\x8a@'
tbag45
(g46
(I0
tS'b'
tRp836
(I1
(tg49
I00
S'\x83\x93\x88@'
tbag45
(g46
(I0
tS'b'
tRp837
(I1
(tg49
I00
S'\xb7\xa8\x86@'
tbag45
(g46
(I0
tS'b'
tRp838
(I1
(tg49
I00
S'\x00\xb1\x86@'
tbag45
(g46
(I0
tS'b'
tRp839
(I1
(tg49
I00
S'\xcf\xa3\x89@'
tbag45
(g46
(I0
tS'b'
tRp840
(I1
(tg49
I00
S'\x08o\x9f@'
tbag45
(g46
(I0
tS'b'
tRp841
(I1
(tg49
I00
S'O\xb4\x88@'
tbasg253
(lp842
I0
aI293
aI586
aI879
aI1172
aI1465
aI1758
aI2051
aI2344
aI2637
aI2930
aI3223
aI3516
aI3809
asg255
(lp843
F4.372899055480957
aF38.230388879776001
aF74.3855299949646
aF112.7558159828186
aF147.41332006454468
aF187.26236701011658
aF223.98739385604858
aF266.0420548915863
aF303.33898591995239
aF344.1863968372345
aF384.30198693275452
aF427.58870100975037
aF468.78763604164124
aF505.61919689178467
asg257
(lp844
I0
aI29300
aI58600
aI87900
aI117200
aI146500
aI175800
aI205100
aI234400
aI263700
aI293000
aI322300
aI351600
aI380900
asbaa(lp845
S'valid_y_row_norms_min'
p846
ag1
(g231
g3
NtRp847
(dp848
g234
(lp849
I0
aI1
aI2
aI3
aI4
aI5
aI6
aI7
aI8
aI9
aI10
aI11
aI12
aI13
asg236
g288
sg237
(lp850
g45
(g46
(I0
tS'b'
tRp851
(I1
(tg49
I00
S'\x00\x00\x00\x00'
tbag45
(g46
(I0
tS'b'
tRp852
(I1
(tg49
I00
S'>\xbd\x8c<'
tbag45
(g46
(I0
tS'b'
tRp853
(I1
(tg49
I00
S'0\x906<'
tbag45
(g46
(I0
tS'b'
tRp854
(I1
(tg49
I00
S'vr\x1c<'
tbag45
(g46
(I0
tS'b'
tRp855
(I1
(tg49
I00
S'\xedd\x9c:'
tbag45
(g46
(I0
tS'b'
tRp856
(I1
(tg49
I00
S's\r\x82<'
tbag45
(g46
(I0
tS'b'
tRp857
(I1
(tg49
I00
S'\xdf\xb8\xb2;'
tbag45
(g46
(I0
tS'b'
tRp858
(I1
(tg49
I00
S'\r|\xd9:'
tbag45
(g46
(I0
tS'b'
tRp859
(I1
(tg49
I00
S'\xa1\x89\xc2;'
tbag45
(g46
(I0
tS'b'
tRp860
(I1
(tg49
I00
S'\x04\x1b\n<'
tbag45
(g46
(I0
tS'b'
tRp861
(I1
(tg49
I00
S'\t\xac\xd4;'
tbag45
(g46
(I0
tS'b'
tRp862
(I1
(tg49
I00
S'\xe7\x05\x9b;'
tbag45
(g46
(I0
tS'b'
tRp863
(I1
(tg49
I00
S'PO\x00<'
tbag45
(g46
(I0
tS'b'
tRp864
(I1
(tg49
I00
S'\xb8\xf8\xca;'
tbasg253
(lp865
I0
aI293
aI586
aI879
aI1172
aI1465
aI1758
aI2051
aI2344
aI2637
aI2930
aI3223
aI3516
aI3809
asg255
(lp866
F4.372899055480957
aF38.230388879776001
aF74.3855299949646
aF112.7558159828186
aF147.41332006454468
aF187.26236701011658
aF223.98739385604858
aF266.0420548915863
aF303.33898591995239
aF344.1863968372345
aF384.30198693275452
aF427.58870100975037
aF468.78763604164124
aF505.61919689178467
asg257
(lp867
I0
aI29300
aI58600
aI87900
aI117200
aI146500
aI175800
aI205100
aI234400
aI263700
aI293000
aI322300
aI351600
aI380900
asbaa(lp868
S'valid_y_nll'
p869
ag1
(g231
g3
NtRp870
(dp871
g234
(lp872
I0
aI1
aI2
aI3
aI4
aI5
aI6
aI7
aI8
aI9
aI10
aI11
aI12
aI13
asg236
g312
sg237
(lp873
g45
(g46
(I0
tS'b'
tRp874
(I1
(tg49
I00
S'\x13r1?'
tbag45
(g46
(I0
tS'b'
tRp875
(I1
(tg49
I00
S'\xaf8F?'
tbag45
(g46
(I0
tS'b'
tRp876
(I1
(tg49
I00
S'\x01\xbfG?'
tbag45
(g46
(I0
tS'b'
tRp877
(I1
(tg49
I00
S'\xa4\xa3Q?'
tbag45
(g46
(I0
tS'b'
tRp878
(I1
(tg49
I00
S'\xa3\xbdQ?'
tbag45
(g46
(I0
tS'b'
tRp879
(I1
(tg49
I00
S'\xe0\r^?'
tbag45
(g46
(I0
tS'b'
tRp880
(I1
(tg49
I00
S'\x9erI?'
tbag45
(g46
(I0
tS'b'
tRp881
(I1
(tg49
I00
S'\xadf}?'
tbag45
(g46
(I0
tS'b'
tRp882
(I1
(tg49
I00
S'\xe6\xd14?'
tbag45
(g46
(I0
tS'b'
tRp883
(I1
(tg49
I00
S'@\x83e?'
tbag45
(g46
(I0
tS'b'
tRp884
(I1
(tg49
I00
S'\xb3\xc5??'
tbag45
(g46
(I0
tS'b'
tRp885
(I1
(tg49
I00
S'\xaa%??'
tbag45
(g46
(I0
tS'b'
tRp886
(I1
(tg49
I00
S'\xcf\xd2T?'
tbag45
(g46
(I0
tS'b'
tRp887
(I1
(tg49
I00
S'\x8a/*?'
tbasg253
(lp888
I0
aI293
aI586
aI879
aI1172
aI1465
aI1758
aI2051
aI2344
aI2637
aI2930
aI3223
aI3516
aI3809
asg255
(lp889
F4.372899055480957
aF38.230388879776001
aF74.3855299949646
aF112.7558159828186
aF147.41332006454468
aF187.26236701011658
aF223.98739385604858
aF266.0420548915863
aF303.33898591995239
aF344.1863968372345
aF384.30198693275452
aF427.58870100975037
aF468.78763604164124
aF505.61919689178467
asg257
(lp890
I0
aI29300
aI58600
aI87900
aI117200
aI146500
aI175800
aI205100
aI234400
aI263700
aI293000
aI322300
aI351600
aI380900
asbaa(lp891
S'valid_y_col_norms_mean'
p892
ag1
(g231
g3
NtRp893
(dp894
g234
(lp895
I0
aI1
aI2
aI3
aI4
aI5
aI6
aI7
aI8
aI9
aI10
aI11
aI12
aI13
asg236
g336
sg237
(lp896
g45
(g46
(I0
tS'b'
tRp897
(I1
(tg49
I00
S'\x00\x00\x00\x00'
tbag45
(g46
(I0
tS'b'
tRp898
(I1
(tg49
I00
S'\xce_\x97@'
tbag45
(g46
(I0
tS'b'
tRp899
(I1
(tg49
I00
S'\xd1\xd5\x8c@'
tbag45
(g46
(I0
tS'b'
tRp900
(I1
(tg49
I00
S'dP\x88@'
tbag45
(g46
(I0
tS'b'
tRp901
(I1
(tg49
I00
S'L\xd1\x91@'
tbag45
(g46
(I0
tS'b'
tRp902
(I1
(tg49
I00
S'G\xd2\x88@'
tbag45
(g46
(I0
tS'b'
tRp903
(I1
(tg49
I00
S'*\xe3\x8d@'
tbag45
(g46
(I0
tS'b'
tRp904
(I1
(tg49
I00
S'\x11,\x8a@'
tbag45
(g46
(I0
tS'b'
tRp905
(I1
(tg49
I00
S'\x84\x93\x88@'
tbag45
(g46
(I0
tS'b'
tRp906
(I1
(tg49
I00
S'\xb7\xa8\x86@'
tbag45
(g46
(I0
tS'b'
tRp907
(I1
(tg49
I00
S'\x00\xb1\x86@'
tbag45
(g46
(I0
tS'b'
tRp908
(I1
(tg49
I00
S'\xcf\xa3\x89@'
tbag45
(g46
(I0
tS'b'
tRp909
(I1
(tg49
I00
S'\x08o\x9f@'
tbag45
(g46
(I0
tS'b'
tRp910
(I1
(tg49
I00
S'O\xb4\x88@'
tbasg253
(lp911
I0
aI293
aI586
aI879
aI1172
aI1465
aI1758
aI2051
aI2344
aI2637
aI2930
aI3223
aI3516
aI3809
asg255
(lp912
F4.372899055480957
aF38.230388879776001
aF74.3855299949646
aF112.7558159828186
aF147.41332006454468
aF187.26236701011658
aF223.98739385604858
aF266.0420548915863
aF303.33898591995239
aF344.1863968372345
aF384.30198693275452
aF427.58870100975037
aF468.78763604164124
aF505.61919689178467
asg257
(lp913
I0
aI29300
aI58600
aI87900
aI117200
aI146500
aI175800
aI205100
aI234400
aI263700
aI293000
aI322300
aI351600
aI380900
asbaa(lp914
S'valid_y_max_max_class'
p915
ag1
(g231
g3
NtRp916
(dp917
g234
(lp918
I0
aI1
aI2
aI3
aI4
aI5
aI6
aI7
aI8
aI9
aI10
aI11
aI12
aI13
asg236
g360
sg237
(lp919
g45
(g46
(I0
tS'b'
tRp920
(I1
(tg49
I00
S'\x04\x00\x00?'
tbag45
(g46
(I0
tS'b'
tRp921
(I1
(tg49
I00
S'R\xe1\x7f?'
tbag45
(g46
(I0
tS'b'
tRp922
(I1
(tg49
I00
S'B\x88\x7f?'
tbag45
(g46
(I0
tS'b'
tRp923
(I1
(tg49
I00
S'\xc0E\x7f?'
tbag45
(g46
(I0
tS'b'
tRp924
(I1
(tg49
I00
S'\xa8[\x7f?'
tbag45
(g46
(I0
tS'b'
tRp925
(I1
(tg49
I00
S'F/\x7f?'
tbag45
(g46
(I0
tS'b'
tRp926
(I1
(tg49
I00
S'\x93\xcc\x7f?'
tbag45
(g46
(I0
tS'b'
tRp927
(I1
(tg49
I00
S'N5\x7f?'
tbag45
(g46
(I0
tS'b'
tRp928
(I1
(tg49
I00
S'}\x83\x7f?'
tbag45
(g46
(I0
tS'b'
tRp929
(I1
(tg49
I00
S'\xbe\xc1}?'
tbag45
(g46
(I0
tS'b'
tRp930
(I1
(tg49
I00
S'\\\x9f\x7f?'
tbag45
(g46
(I0
tS'b'
tRp931
(I1
(tg49
I00
S'!\x8e\x7f?'
tbag45
(g46
(I0
tS'b'
tRp932
(I1
(tg49
I00
S'\x7f\xd0\x7f?'
tbag45
(g46
(I0
tS'b'
tRp933
(I1
(tg49
I00
S'UD~?'
tbasg253
(lp934
I0
aI293
aI586
aI879
aI1172
aI1465
aI1758
aI2051
aI2344
aI2637
aI2930
aI3223
aI3516
aI3809
asg255
(lp935
F4.372899055480957
aF38.230388879776001
aF74.3855299949646
aF112.7558159828186
aF147.41332006454468
aF187.26236701011658
aF223.98739385604858
aF266.0420548915863
aF303.33898591995239
aF344.1863968372345
aF384.30198693275452
aF427.58870100975037
aF468.78763604164124
aF505.61919689178467
asg257
(lp936
I0
aI29300
aI58600
aI87900
aI117200
aI146500
aI175800
aI205100
aI234400
aI263700
aI293000
aI322300
aI351600
aI380900
asbaa(lp937
S'valid_y_min_max_class'
p938
ag1
(g231
g3
NtRp939
(dp940
g234
(lp941
I0
aI1
aI2
aI3
aI4
aI5
aI6
aI7
aI8
aI9
aI10
aI11
aI12
aI13
asg236
g384
sg237
(lp942
g45
(g46
(I0
tS'b'
tRp943
(I1
(tg49
I00
S'\x04\x00\x00?'
tbag45
(g46
(I0
tS'b'
tRp944
(I1
(tg49
I00
S'A\x98\x03?'
tbag45
(g46
(I0
tS'b'
tRp945
(I1
(tg49
I00
S'\xcd\x92\x02?'
tbag45
(g46
(I0
tS'b'
tRp946
(I1
(tg49
I00
S'\x80#\x02?'
tbag45
(g46
(I0
tS'b'
tRp947
(I1
(tg49
I00
S'\xf7\n\x03?'
tbag45
(g46
(I0
tS'b'
tRp948
(I1
(tg49
I00
S'-\xfa\x01?'
tbag45
(g46
(I0
tS'b'
tRp949
(I1
(tg49
I00
S'\x92\x8d\x02?'
tbag45
(g46
(I0
tS'b'
tRp950
(I1
(tg49
I00
S'\xc7.\x02?'
tbag45
(g46
(I0
tS'b'
tRp951
(I1
(tg49
I00
S'\xe7\xa3\x02?'
tbag45
(g46
(I0
tS'b'
tRp952
(I1
(tg49
I00
S'FV\x01?'
tbag45
(g46
(I0
tS'b'
tRp953
(I1
(tg49
I00
S'F\x10\x03?'
tbag45
(g46
(I0
tS'b'
tRp954
(I1
(tg49
I00
S'8:\x02?'
tbag45
(g46
(I0
tS'b'
tRp955
(I1
(tg49
I00
S'\x0cW\x03?'
tbag45
(g46
(I0
tS'b'
tRp956
(I1
(tg49
I00
S'O\xa0\x01?'
tbasg253
(lp957
I0
aI293
aI586
aI879
aI1172
aI1465
aI1758
aI2051
aI2344
aI2637
aI2930
aI3223
aI3516
aI3809
asg255
(lp958
F4.372899055480957
aF38.230388879776001
aF74.3855299949646
aF112.7558159828186
aF147.41332006454468
aF187.26236701011658
aF223.98739385604858
aF266.0420548915863
aF303.33898591995239
aF344.1863968372345
aF384.30198693275452
aF427.58870100975037
aF468.78763604164124
aF505.61919689178467
asg257
(lp959
I0
aI29300
aI58600
aI87900
aI117200
aI146500
aI175800
aI205100
aI234400
aI263700
aI293000
aI322300
aI351600
aI380900
asbaa(lp960
S'valid_y_row_norms_max'
p961
ag1
(g231
g3
NtRp962
(dp963
g234
(lp964
I0
aI1
aI2
aI3
aI4
aI5
aI6
aI7
aI8
aI9
aI10
aI11
aI12
aI13
asg236
g408
sg237
(lp965
g45
(g46
(I0
tS'b'
tRp966
(I1
(tg49
I00
S'\x00\x00\x00\x00'
tbag45
(g46
(I0
tS'b'
tRp967
(I1
(tg49
I00
S'\x8a\x81\xab?'
tbag45
(g46
(I0
tS'b'
tRp968
(I1
(tg49
I00
S'\xb6\xf0\xfb?'
tbag45
(g46
(I0
tS'b'
tRp969
(I1
(tg49
I00
S'\x1dD\xc4?'
tbag45
(g46
(I0
tS'b'
tRp970
(I1
(tg49
I00
S'\xd8\x1c\xdc?'
tbag45
(g46
(I0
tS'b'
tRp971
(I1
(tg49
I00
S'\xae\xf0\xbd?'
tbag45
(g46
(I0
tS'b'
tRp972
(I1
(tg49
I00
S'`,\xb4?'
tbag45
(g46
(I0
tS'b'
tRp973
(I1
(tg49
I00
S'\xf0\xbd\xcf?'
tbag45
(g46
(I0
tS'b'
tRp974
(I1
(tg49
I00
S'r\x96\xd6?'
tbag45
(g46
(I0
tS'b'
tRp975
(I1
(tg49
I00
S'\xa6\x90\xb7?'
tbag45
(g46
(I0
tS'b'
tRp976
(I1
(tg49
I00
S'c:\xbf?'
tbag45
(g46
(I0
tS'b'
tRp977
(I1
(tg49
I00
S'\xe9\xb4\xcb?'
tbag45
(g46
(I0
tS'b'
tRp978
(I1
(tg49
I00
S'\xadV\xd5?'
tbag45
(g46
(I0
tS'b'
tRp979
(I1
(tg49
I00
S'\xa8<\xfe?'
tbasg253
(lp980
I0
aI293
aI586
aI879
aI1172
aI1465
aI1758
aI2051
aI2344
aI2637
aI2930
aI3223
aI3516
aI3809
asg255
(lp981
F4.372899055480957
aF38.230388879776001
aF74.3855299949646
aF112.7558159828186
aF147.41332006454468
aF187.26236701011658
aF223.98739385604858
aF266.0420548915863
aF303.33898591995239
aF344.1863968372345
aF384.30198693275452
aF427.58870100975037
aF468.78763604164124
aF505.61919689178467
asg257
(lp982
I0
aI29300
aI58600
aI87900
aI117200
aI146500
aI175800
aI205100
aI234400
aI263700
aI293000
aI322300
aI351600
aI380900
asbaa(lp983
S'valid_y_misclass'
p984
ag1
(g231
g3
NtRp985
(dp986
g234
(lp987
I0
aI1
aI2
aI3
aI4
aI5
aI6
aI7
aI8
aI9
aI10
aI11
aI12
aI13
asg236
g432
sg237
(lp988
g183
ag45
(g46
(I0
tS'b'
tRp989
(I1
(tg49
I00
S'b\xad\xa8>'
tbag45
(g46
(I0
tS'b'
tRp990
(I1
(tg49
I00
S'8\xa5\xae>'
tbag45
(g46
(I0
tS'b'
tRp991
(I1
(tg49
I00
S'\xdf\xe6\xaf>'
tbag45
(g46
(I0
tS'b'
tRp992
(I1
(tg49
I00
S'_;\xad>'
tbag45
(g46
(I0
tS'b'
tRp993
(I1
(tg49
I00
S'\xf5\xea\xac>'
tbag45
(g46
(I0
tS'b'
tRp994
(I1
(tg49
I00
S'(\x80\x98>'
tbag45
(g46
(I0
tS'b'
tRp995
(I1
(tg49
I00
S'\x86\x12\xcb>'
tbag45
(g46
(I0
tS'b'
tRp996
(I1
(tg49
I00
S'\xca\x13\x8f>'
tbag45
(g46
(I0
tS'b'
tRp997
(I1
(tg49
I00
S'\x1b\xa7\xd4>'
tbag45
(g46
(I0
tS'b'
tRp998
(I1
(tg49
I00
S'\x1a\xee\x96>'
tbag45
(g46
(I0
tS'b'
tRp999
(I1
(tg49
I00
S'\xaf\x9d\x96>'
tbag45
(g46
(I0
tS'b'
tRp1000
(I1
(tg49
I00
S'?\x17\xaa>'
tbag45
(g46
(I0
tS'b'
tRp1001
(I1
(tg49
I00
S'/\x85\xa8>'
tbasg253
(lp1002
I0
aI293
aI586
aI879
aI1172
aI1465
aI1758
aI2051
aI2344
aI2637
aI2930
aI3223
aI3516
aI3809
asg255
(lp1003
F4.372899055480957
aF38.230388879776001
aF74.3855299949646
aF112.7558159828186
aF147.41332006454468
aF187.26236701011658
aF223.98739385604858
aF266.0420548915863
aF303.33898591995239
aF344.1863968372345
aF384.30198693275452
aF427.58870100975037
aF468.78763604164124
aF505.61919689178467
asg257
(lp1004
I0
aI29300
aI58600
aI87900
aI117200
aI146500
aI175800
aI205100
aI234400
aI263700
aI293000
aI322300
aI351600
aI380900
asbaa(lp1005
S'valid_y_col_norms_min'
p1006
ag1
(g231
g3
NtRp1007
(dp1008
g234
(lp1009
I0
aI1
aI2
aI3
aI4
aI5
aI6
aI7
aI8
aI9
aI10
aI11
aI12
aI13
asg236
g456
sg237
(lp1010
g45
(g46
(I0
tS'b'
tRp1011
(I1
(tg49
I00
S'\x00\x00\x00\x00'
tbag45
(g46
(I0
tS'b'
tRp1012
(I1
(tg49
I00
S'\xce_\x97@'
tbag45
(g46
(I0
tS'b'
tRp1013
(I1
(tg49
I00
S'\xd1\xd5\x8c@'
tbag45
(g46
(I0
tS'b'
tRp1014
(I1
(tg49
I00
S'dP\x88@'
tbag45
(g46
(I0
tS'b'
tRp1015
(I1
(tg49
I00
S'L\xd1\x91@'
tbag45
(g46
(I0
tS'b'
tRp1016
(I1
(tg49
I00
S'G\xd2\x88@'
tbag45
(g46
(I0
tS'b'
tRp1017
(I1
(tg49
I00
S'*\xe3\x8d@'
tbag45
(g46
(I0
tS'b'
tRp1018
(I1
(tg49
I00
S'\x11,\x8a@'
tbag45
(g46
(I0
tS'b'
tRp1019
(I1
(tg49
I00
S'\x83\x93\x88@'
tbag45
(g46
(I0
tS'b'
tRp1020
(I1
(tg49
I00
S'\xb7\xa8\x86@'
tbag45
(g46
(I0
tS'b'
tRp1021
(I1
(tg49
I00
S'\x00\xb1\x86@'
tbag45
(g46
(I0
tS'b'
tRp1022
(I1
(tg49
I00
S'\xcf\xa3\x89@'
tbag45
(g46
(I0
tS'b'
tRp1023
(I1
(tg49
I00
S'\x08o\x9f@'
tbag45
(g46
(I0
tS'b'
tRp1024
(I1
(tg49
I00
S'O\xb4\x88@'
tbasg253
(lp1025
I0
aI293
aI586
aI879
aI1172
aI1465
aI1758
aI2051
aI2344
aI2637
aI2930
aI3223
aI3516
aI3809
asg255
(lp1026
F4.372899055480957
aF38.230388879776001
aF74.3855299949646
aF112.7558159828186
aF147.41332006454468
aF187.26236701011658
aF223.98739385604858
aF266.0420548915863
aF303.33898591995239
aF344.1863968372345
aF384.30198693275452
aF427.58870100975037
aF468.78763604164124
aF505.61919689178467
asg257
(lp1027
I0
aI29300
aI58600
aI87900
aI117200
aI146500
aI175800
aI205100
aI234400
aI263700
aI293000
aI322300
aI351600
aI380900
asbaa(lp1028
S'valid_y_row_norms_mean'
p1029
ag1
(g231
g3
NtRp1030
(dp1031
g234
(lp1032
I0
aI1
aI2
aI3
aI4
aI5
aI6
aI7
aI8
aI9
aI10
aI11
aI12
aI13
asg236
g480
sg237
(lp1033
g45
(g46
(I0
tS'b'
tRp1034
(I1
(tg49
I00
S'\x00\x00\x00\x00'
tbag45
(g46
(I0
tS'b'
tRp1035
(I1
(tg49
I00
S'\x83\xc8\xfa>'
tbag45
(g46
(I0
tS'b'
tRp1036
(I1
(tg49
I00
S'\xb42\xe3>'
tbag45
(g46
(I0
tS'b'
tRp1037
(I1
(tg49
I00
S'\xdf\xcc\xda>'
tbag45
(g46
(I0
tS'b'
tRp1038
(I1
(tg49
I00
S'\xe8\x8c\xe6>'
tbag45
(g46
(I0
tS'b'
tRp1039
(I1
(tg49
I00
S'\\\x99\xdc>'
tbag45
(g46
(I0
tS'b'
tRp1040
(I1
(tg49
I00
S'\xae\xda\xe6>'
tbag45
(g46
(I0
tS'b'
tRp1041
(I1
(tg49
I00
S'\x07\x1e\xdc>'
tbag45
(g46
(I0
tS'b'
tRp1042
(I1
(tg49
I00
S'\x1d7\xdc>'
tbag45
(g46
(I0
tS'b'
tRp1043
(I1
(tg49
I00
S'\xedU\xd4>'
tbag45
(g46
(I0
tS'b'
tRp1044
(I1
(tg49
I00
S'\xab7\xd7>'
tbag45
(g46
(I0
tS'b'
tRp1045
(I1
(tg49
I00
S'\x969\xda>'
tbag45
(g46
(I0
tS'b'
tRp1046
(I1
(tg49
I00
S'\t;\xfd>'
tbag45
(g46
(I0
tS'b'
tRp1047
(I1
(tg49
I00
S'o\xff\xda>'
tbasg253
(lp1048
I0
aI293
aI586
aI879
aI1172
aI1465
aI1758
aI2051
aI2344
aI2637
aI2930
aI3223
aI3516
aI3809
asg255
(lp1049
F4.372899055480957
aF38.230388879776001
aF74.3855299949646
aF112.7558159828186
aF147.41332006454468
aF187.26236701011658
aF223.98739385604858
aF266.0420548915863
aF303.33898591995239
aF344.1863968372345
aF384.30198693275452
aF427.58870100975037
aF468.78763604164124
aF505.61919689178467
asg257
(lp1050
I0
aI29300
aI58600
aI87900
aI117200
aI146500
aI175800
aI205100
aI234400
aI263700
aI293000
aI322300
aI351600
aI380900
asbaa(lp1051
S'valid_y_mean_max_class'
p1052
ag1
(g231
g3
NtRp1053
(dp1054
g234
(lp1055
I0
aI1
aI2
aI3
aI4
aI5
aI6
aI7
aI8
aI9
aI10
aI11
aI12
aI13
asg236
g504
sg237
(lp1056
g45
(g46
(I0
tS'b'
tRp1057
(I1
(tg49
I00
S'\x04\x00\x00?'
tbag45
(g46
(I0
tS'b'
tRp1058
(I1
(tg49
I00
S'&\xbdX?'
tbag45
(g46
(I0
tS'b'
tRp1059
(I1
(tg49
I00
S'\x90\xcaP?'
tbag45
(g46
(I0
tS'b'
tRp1060
(I1
(tg49
I00
S'\x05\xf4O?'
tbag45
(g46
(I0
tS'b'
tRp1061
(I1
(tg49
I00
S'\x08)W?'
tbag45
(g46
(I0
tS'b'
tRp1062
(I1
(tg49
I00
S'%\xa7S?'
tbag45
(g46
(I0
tS'b'
tRp1063
(I1
(tg49
I00
S'\x0e>Z?'
tbag45
(g46
(I0
tS'b'
tRp1064
(I1
(tg49
I00
S'\xb2kR?'
tbag45
(g46
(I0
tS'b'
tRp1065
(I1
(tg49
I00
S'^eW?'
tbag45
(g46
(I0
tS'b'
tRp1066
(I1
(tg49
I00
S'\xc2qE?'
tbag45
(g46
(I0
tS'b'
tRp1067
(I1
(tg49
I00
S'-\xeeX?'
tbag45
(g46
(I0
tS'b'
tRp1068
(I1
(tg49
I00
S'\x87TW?'
tbag45
(g46
(I0
tS'b'
tRp1069
(I1
(tg49
I00
S'\x0bwW?'
tbag45
(g46
(I0
tS'b'
tRp1070
(I1
(tg49
I00
S'\x0eTI?'
tbasg253
(lp1071
I0
aI293
aI586
aI879
aI1172
aI1465
aI1758
aI2051
aI2344
aI2637
aI2930
aI3223
aI3516
aI3809
asg255
(lp1072
F4.372899055480957
aF38.230388879776001
aF74.3855299949646
aF112.7558159828186
aF147.41332006454468
aF187.26236701011658
aF223.98739385604858
aF266.0420548915863
aF303.33898591995239
aF344.1863968372345
aF384.30198693275452
aF427.58870100975037
aF468.78763604164124
aF505.61919689178467
asg257
(lp1073
I0
aI29300
aI58600
aI87900
aI117200
aI146500
aI175800
aI205100
aI234400
aI263700
aI293000
aI322300
aI351600
aI380900
asbaa(lp1074
S'ave_step_size'
p1075
ag1
(g231
g3
NtRp1076
(dp1077
g234
(lp1078
I0
aI1
aI2
aI3
aI4
aI5
aI6
aI7
aI8
aI9
aI10
aI11
aI12
aI13
asg236
Nsg237
(lp1079
g45
(g46
(I0
tS'b'
tRp1080
(I1
(tg49
I00
S'\x00\x00\x00\x00'
tbag45
(g46
(I0
tS'b'
tRp1081
(I1
(tg49
I00
S'\xa1`\x18?'
tbag45
(g46
(I0
tS'b'
tRp1082
(I1
(tg49
I00
S'\x11\x96\x11?'
tbag45
(g46
(I0
tS'b'
tRp1083
(I1
(tg49
I00
S'2\xe5\x1a?'
tbag45
(g46
(I0
tS'b'
tRp1084
(I1
(tg49
I00
S'\x9b\xdd\x14?'
tbag45
(g46
(I0
tS'b'
tRp1085
(I1
(tg49
I00
S'g\x00\x12?'
tbag45
(g46
(I0
tS'b'
tRp1086
(I1
(tg49
I00
S'Z\xab ?'
tbag45
(g46
(I0
tS'b'
tRp1087
(I1
(tg49
I00
S'\xa2Z\x10?'
tbag45
(g46
(I0
tS'b'
tRp1088
(I1
(tg49
I00
S'\x0fe\x1c?'
tbag45
(g46
(I0
tS'b'
tRp1089
(I1
(tg49
I00
S'\xbb\xfc\x14?'
tbag45
(g46
(I0
tS'b'
tRp1090
(I1
(tg49
I00
S'\x1b\x07\x10?'
tbag45
(g46
(I0
tS'b'
tRp1091
(I1
(tg49
I00
S'zJ\x0f?'
tbag45
(g46
(I0
tS'b'
tRp1092
(I1
(tg49
I00
S'pN\x1f?'
tbag45
(g46
(I0
tS'b'
tRp1093
(I1
(tg49
I00
S'k6\x14?'
tbasg253
(lp1094
I0
aI293
aI586
aI879
aI1172
aI1465
aI1758
aI2051
aI2344
aI2637
aI2930
aI3223
aI3516
aI3809
asg255
(lp1095
F4.372899055480957
aF38.230388879776001
aF74.3855299949646
aF112.7558159828186
aF147.41332006454468
aF187.26236701011658
aF223.98739385604858
aF266.0420548915863
aF303.33898591995239
aF344.1863968372345
aF384.30198693275452
aF427.58870100975037
aF468.78763604164124
aF505.61919689178467
asg257
(lp1096
I0
aI29300
aI58600
aI87900
aI117200
aI146500
aI175800
aI205100
aI234400
aI263700
aI293000
aI322300
aI351600
aI380900
asbaa(lp1097
S'ave_grad_size'
p1098
ag1
(g231
g3
NtRp1099
(dp1100
g234
(lp1101
I0
aI1
aI2
aI3
aI4
aI5
aI6
aI7
aI8
aI9
aI10
aI11
aI12
aI13
asg236
Nsg237
(lp1102
g45
(g46
(I0
tS'b'
tRp1103
(I1
(tg49
I00
S'\x00\x00\x00\x00'
tbag45
(g46
(I0
tS'b'
tRp1104
(I1
(tg49
I00
S'ee\x84>'
tbag45
(g46
(I0
tS'b'
tRp1105
(I1
(tg49
I00
S'\xd7X\x80>'
tbag45
(g46
(I0
tS'b'
tRp1106
(I1
(tg49
I00
S'\x1e\x9c~>'
tbag45
(g46
(I0
tS'b'
tRp1107
(I1
(tg49
I00
S'\xe5\x03\x82>'
tbag45
(g46
(I0
tS'b'
tRp1108
(I1
(tg49
I00
S'\xe1"\x87>'
tbag45
(g46
(I0
tS'b'
tRp1109
(I1
(tg49
I00
S'\x9eY\x85>'
tbag45
(g46
(I0
tS'b'
tRp1110
(I1
(tg49
I00
S'\x8d\x98\x88>'
tbag45
(g46
(I0
tS'b'
tRp1111
(I1
(tg49
I00
S'\x9d?\x86>'
tbag45
(g46
(I0
tS'b'
tRp1112
(I1
(tg49
I00
S'\x0b8\x82>'
tbag45
(g46
(I0
tS'b'
tRp1113
(I1
(tg49
I00
S'\x8c\xdd\x86>'
tbag45
(g46
(I0
tS'b'
tRp1114
(I1
(tg49
I00
S'B\x15\x84>'
tbag45
(g46
(I0
tS'b'
tRp1115
(I1
(tg49
I00
S'\xf9\xc0\x8a>'
tbag45
(g46
(I0
tS'b'
tRp1116
(I1
(tg49
I00
S'\xe5\x9a\x85>'
tbasg253
(lp1117
I0
aI293
aI586
aI879
aI1172
aI1465
aI1758
aI2051
aI2344
aI2637
aI2930
aI3223
aI3516
aI3809
asg255
(lp1118
F4.372899055480957
aF38.230388879776001
aF74.3855299949646
aF112.7558159828186
aF147.41332006454468
aF187.26236701011658
aF223.98739385604858
aF266.0420548915863
aF303.33898591995239
aF344.1863968372345
aF384.30198693275452
aF427.58870100975037
aF468.78763604164124
aF505.61919689178467
asg257
(lp1119
I0
aI29300
aI58600
aI87900
aI117200
aI146500
aI175800
aI205100
aI234400
aI263700
aI293000
aI322300
aI351600
aI380900
asbaa(lp1120
S'ave_grad_mult'
p1121
ag1
(g231
g3
NtRp1122
(dp1123
g234
(lp1124
I0
aI1
aI2
aI3
aI4
aI5
aI6
aI7
aI8
aI9
aI10
aI11
aI12
aI13
asg236
Nsg237
(lp1125
g45
(g46
(I0
tS'b'
tRp1126
(I1
(tg49
I00
S'\x00\x00\x00\x00'
tbag45
(g46
(I0
tS'b'
tRp1127
(I1
(tg49
I00
S'\xf6\xa41@'
tbag45
(g46
(I0
tS'b'
tRp1128
(I1
(tg49
I00
S'dY!@'
tbag45
(g46
(I0
tS'b'
tRp1129
(I1
(tg49
I00
S'_\xf6=@'
tbag45
(g46
(I0
tS'b'
tRp1130
(I1
(tg49
I00
S'\xf4.&@'
tbag45
(g46
(I0
tS'b'
tRp1131
(I1
(tg49
I00
S'\x01\xcb+@'
tbag45
(g46
(I0
tS'b'
tRp1132
(I1
(tg49
I00
S'\xe2\xcc6@'
tbag45
(g46
(I0
tS'b'
tRp1133
(I1
(tg49
I00
S'\\\xe7\x1d@'
tbag45
(g46
(I0
tS'b'
tRp1134
(I1
(tg49
I00
S'.\xc2<@'
tbag45
(g46
(I0
tS'b'
tRp1135
(I1
(tg49
I00
S'\xc9<+@'
tbag45
(g46
(I0
tS'b'
tRp1136
(I1
(tg49
I00
S'\xb0z$@'
tbag45
(g46
(I0
tS'b'
tRp1137
(I1
(tg49
I00
S'\xb7\x81\x1f@'
tbag45
(g46
(I0
tS'b'
tRp1138
(I1
(tg49
I00
S'\x1c\x894@'
tbag45
(g46
(I0
tS'b'
tRp1139
(I1
(tg49
I00
S'\xad\xd7#@'
tbasg253
(lp1140
I0
aI293
aI586
aI879
aI1172
aI1465
aI1758
aI2051
aI2344
aI2637
aI2930
aI3223
aI3516
aI3809
asg255
(lp1141
F4.372899055480957
aF38.230388879776001
aF74.3855299949646
aF112.7558159828186
aF147.41332006454468
aF187.26236701011658
aF223.98739385604858
aF266.0420548915863
aF303.33898591995239
aF344.1863968372345
aF384.30198693275452
aF427.58870100975037
aF468.78763604164124
aF505.61919689178467
asg257
(lp1142
I0
aI29300
aI58600
aI87900
aI117200
aI146500
aI175800
aI205100
aI234400
aI263700
aI293000
aI322300
aI351600
aI380900
asbaa(lp1143
S'training_seconds_this_epoch'
p1144
ag1
(g231
g3
NtRp1145
(dp1146
g234
(lp1147
I0
aI1
aI2
aI3
aI4
aI5
aI6
aI7
aI8
aI9
aI10
aI11
aI12
aI13
asg236
Nsg237
(lp1148
g45
(g46
(I0
tS'b'
tRp1149
(I1
(tg49
I00
S'\x00\x00\x00\x00'
tbag45
(g46
(I0
tS'b'
tRp1150
(I1
(tg49
I00
S'\x9b\xec\x03B'
tbag45
(g46
(I0
tS'b'
tRp1151
(I1
(tg49
I00
S'\x18\x1d\rB'
tbag45
(g46
(I0
tS'b'
tRp1152
(I1
(tg49
I00
S'>\x8b\x15B'
tbag45
(g46
(I0
tS'b'
tRp1153
(I1
(tg49
I00
S'\xf0\xd4\x05B'
tbag45
(g46
(I0
tS'b'
tRp1154
(I1
(tg49
I00
S'o\xa7\x1aB'
tbag45
(g46
(I0
tS'b'
tRp1155
(I1
(tg49
I00
S'~\x80\x0fB'
tbag45
(g46
(I0
tS'b'
tRp1156
(I1
(tg49
I00
S'>+$B'
tbag45
(g46
(I0
tS'b'
tRp1157
(I1
(tg49
I00
S'\x84\xdb\x10B'
tbag45
(g46
(I0
tS'b'
tRp1158
(I1
(tg49
I00
S'=\xe8\x1eB'
tbag45
(g46
(I0
tS'b'
tRp1159
(I1
(tg49
I00
S'\x16\x10\x1dB'
tbag45
(g46
(I0
tS'b'
tRp1160
(I1
(tg49
I00
S'~\x94(B'
tbag45
(g46
(I0
tS'b'
tRp1161
(I1
(tg49
I00
S'\x1c\x19!B'
tbag45
(g46
(I0
tS'b'
tRp1162
(I1
(tg49
I00
S',\xb9\x0fB'
tbasg253
(lp1163
I0
aI293
aI586
aI879
aI1172
aI1465
aI1758
aI2051
aI2344
aI2637
aI2930
aI3223
aI3516
aI3809
asg255
(lp1164
F4.372899055480957
aF38.230388879776001
aF74.3855299949646
aF112.7558159828186
aF147.41332006454468
aF187.26236701011658
aF223.98739385604858
aF266.0420548915863
aF303.33898591995239
aF344.1863968372345
aF384.30198693275452
aF427.58870100975037
aF468.78763604164124
aF505.61919689178467
asg257
(lp1165
I0
aI29300
aI58600
aI87900
aI117200
aI146500
aI175800
aI205100
aI234400
aI263700
aI293000
aI322300
aI351600
aI380900
asbaa(lp1166
S'total_seconds_last_epoch'
p1167
ag1
(g231
g3
NtRp1168
(dp1169
g234
(lp1170
I0
aI1
aI2
aI3
aI4
aI5
aI6
aI7
aI8
aI9
aI10
aI11
aI12
aI13
asg236
Nsg237
(lp1171
g45
(g46
(I0
tS'b'
tRp1172
(I1
(tg49
I00
S'\x00\x00\x00\x00'
tbag45
(g46
(I0
tS'b'
tRp1173
(I1
(tg49
I00
S'\x00\x00\x00\x00'
tbag45
(g46
(I0
tS'b'
tRp1174
(I1
(tg49
I00
S'\xe9m\x07B'
tbag45
(g46
(I0
tS'b'
tRp1175
(I1
(tg49
I00
S'\x97\x9f\x10B'
tbag45
(g46
(I0
tS'b'
tRp1176
(I1
(tg49
I00
S'\x84~\x19B'
tbag45
(g46
(I0
tS'b'
tRp1177
(I1
(tg49
I00
S'\xc9\xa0\nB'
tbag45
(g46
(I0
tS'b'
tRp1178
(I1
(tg49
I00
S'gf\x1fB'
tbag45
(g46
(I0
tS'b'
tRp1179
(I1
(tg49
I00
S';\xe4\x12B'
tbag45
(g46
(I0
tS'b'
tRp1180
(I1
(tg49
I00
S'^:(B'
tbag45
(g46
(I0
tS'b'
tRp1181
(I1
(tg49
I00
S'\xae0\x15B'
tbag45
(g46
(I0
tS'b'
tRp1182
(I1
(tg49
I00
S'\x8ac#B'
tbag45
(g46
(I0
tS'b'
tRp1183
(I1
(tg49
I00
S'bw B'
tbag45
(g46
(I0
tS'b'
tRp1184
(I1
(tg49
I00
S'\xc7(-B'
tbag45
(g46
(I0
tS'b'
tRp1185
(I1
(tg49
I00
S'\xb8\xcc$B'
tbasg253
(lp1186
I0
aI293
aI586
aI879
aI1172
aI1465
aI1758
aI2051
aI2344
aI2637
aI2930
aI3223
aI3516
aI3809
asg255
(lp1187
F4.372899055480957
aF38.230388879776001
aF74.3855299949646
aF112.7558159828186
aF147.41332006454468
aF187.26236701011658
aF223.98739385604858
aF266.0420548915863
aF303.33898591995239
aF344.1863968372345
aF384.30198693275452
aF427.58870100975037
aF468.78763604164124
aF505.61919689178467
asg257
(lp1188
I0
aI29300
aI58600
aI87900
aI117200
aI146500
aI175800
aI205100
aI234400
aI263700
aI293000
aI322300
aI351600
aI380900
asbaatRp1189
sS'_datasets'
p1190
(lp1191
S"!obj:dataset_wrapper.load_data {path: 'adult/test_R.csv', start: 0, stop: 16281, mode: 'classification'}\n"
p1192
aS"!obj:dataset_wrapper.load_data {path: 'adult/train_v_R.csv', start: 0, stop: 29301,\n  mode: 'classification'}\n"
p1193
aS"!obj:dataset_wrapper.load_data {path: 'adult/valid_v_R.csv', start: 0, stop: 3260,\n  mode: 'classification'}\n"
p1194
asS'_iteration_mode'
p1195
(lp1196
S'sequential'
p1197
ag1197
ag1197
asS'_data_specs_mapping'
p1198
g1
(cpylearn2.utils.data_specs
DataSpecsMapping
p1199
g3
NtRp1200
(dp1201
S'spec_mapping'
p1202
((I0
I1
t(I0
I1
t(I0
I1
t(I0
I1
t(I0
I1
t(I0
I1
t(I0
I1
t(I0
I1
t(I0
I1
t(I0
I1
t(I0
I1
t(I0
I1
t(I0
I1
t(I0
I1
t(I0
I1
t(I0
I1
t(I0
I1
t(I0
I1
t(I0
I1
t(I0
I1
t(I0
I1
t(I0
I1
t(I0
I1
t(I0
I1
t(I0
I1
t(I0
I1
t(I0
I1
t(I0
I1
t(I0
I1
t(I0
I1
t(I0
I1
t(I0
I1
t(I0
I1
t(I0
I1
t(I0
I1
t(I0
I1
t(I0
I1
tNNNNNtp1203
sS'specs_to_index'
p1204
(dp1205
(g89
g186
tp1206
I1
s(g67
g204
tp1207
I0
ssS'n_unique_specs'
p1208
I2
sbsS'training_succeeded'
p1209
I01
sS'_num_batches_seen'
p1210
I3809
sS't0'
p1211
F1426456116.2709301
sg82
(lp1212
S'theano_function_mode'
p1213
aS'accum'
p1214
aS'begin_record_entry'
p1215
aS'num_examples'
p1216
aS'prereqs'
p1217
asS'model'
p1218
g4
sS'_nested_data_specs'
p1219
(g1
(g214
g3
NtRp1220
(dp1221
g72
(lp1222
sg218
(lp1223
g1
(g214
g3
NtRp1224
(dp1225
g72
(lp1226
sg218
(lp1227
g67
ag89
asg75
(lp1228
sbag1
(g214
g3
NtRp1229
(dp1230
g72
(lp1231
sg218
(lp1232
g67
ag89
asg75
(lp1233
sbag1
(g214
g3
NtRp1234
(dp1235
g72
(lp1236
sg218
(lp1237
g67
ag89
asg75
(lp1238
sbag1234
ag1234
ag1234
ag1234
ag1234
ag1234
ag1234
ag1234
ag1234
ag1234
ag1
(g214
g3
NtRp1239
(dp1240
g72
(lp1241
sg218
(lp1242
g67
ag89
asg75
(lp1243
sbag1234
ag1234
ag1234
ag1234
ag1234
ag1234
ag1234
ag1234
ag1234
ag1234
ag1234
ag1
(g214
g3
NtRp1244
(dp1245
g72
(lp1246
sg218
(lp1247
g67
ag89
asg75
(lp1248
sbag1234
ag1234
ag1234
ag1234
ag1234
ag1234
ag1234
ag1234
ag1234
ag1234
ag1234
ag1
(cpylearn2.space
NullSpace
p1249
g3
NtRp1250
(dp1251
g72
(lp1252
sg75
(lp1253
sbag1
(g1249
g3
NtRp1254
(dp1255
g72
(lp1256
sg75
(lp1257
sbag1
(g1249
g3
NtRp1258
(dp1259
g72
(lp1260
sg75
(lp1261
sbag1
(g1249
g3
NtRp1262
(dp1263
g72
(lp1264
sg75
(lp1265
sbag1
(g1249
g3
NtRp1266
(dp1267
g72
(lp1268
sg75
(lp1269
sbasg75
(lp1270
sb((g204
g186
t(g204
g186
tp1271
(g204
g186
tp1272
g1272
g1272
g1272
g1272
g1272
g1272
g1272
g1272
g1272
g1272
(g204
g186
tp1273
g1272
g1272
g1272
g1272
g1272
g1272
g1272
g1272
g1272
g1272
g1272
(g204
g186
tp1274
g1272
g1272
g1272
g1272
g1272
g1272
g1272
g1272
g1272
g1272
g1272
S''
S''
S''
S''
S''
ttp1275
sS'_rng_seed'
p1276
(lp1277
NaNaNasbaa(lp1278
g106
aNaa(lp1279
S'dataset_yaml_src'
p1280
ag1193
aatRp1281
b.