ccopy_reg
_reconstructor
p1
(cpylearn2.models.softmax_regression
SoftmaxRegression
p2
c__builtin__
object
p3
NtRp4
ccollections
OrderedDict
p5
((lp6
(lp7
S'layers'
p8
a(lp9
g1
(cpylearn2.models.mlp
Softmax
p10
g3
NtRp11
g5
((lp12
(lp13
S'_has_binary_target'
p14
aI00
aa(lp15
S'W'
ag1
(ctheano.tensor.sharedvar
TensorSharedVariable
p16
g3
NtRp17
(dp18
S'index'
p19
NsS'tag'
p20
(itheano.gof.utils
scratchpad
p21
(dp22
S'trace'
p23
(lp24
(S'/Users/Yang/PycharmProjects/pylearn2/pylearn2/models/mlp.py'
p25
I543
S'_update_layer_input_spaces'
p26
S'layers[0].set_input_space(self.get_input_space())'
tp27
a(S'/Users/Yang/PycharmProjects/pylearn2/pylearn2/sandbox/rnn/models/mlp_hook.py'
p28
I334
S'outer'
p29
S'return set_input_space(self, input_space)'
tp30
a(g25
I1313
S'set_input_space'
p31
S"self.W = sharedX(W,  'softmax_W')"
tp32
a(S'/Users/Yang/PycharmProjects/pylearn2/pylearn2/utils/__init__.py'
p33
I74
S'sharedX'
p34
S'borrow=borrow)'
tp35
asbsS'container'
p36
g1
(ctheano.gof.link
Container
p37
g3
NtRp38
(dp39
S'name'
p40
S'softmax_W'
p41
sS'storage'
p42
(lp43
cnumpy.core.multiarray
_reconstruct
p44
(cnumpy
ndarray
p45
(I0
tS'b'
tRp46
(I1
(I123
I2
tcnumpy
dtype
p47
(S'f4'
I0
I1
tRp48
(I3
S'<'
NNNI-1
I-1
I0
tbI00
S'2J.?1J.\xbf\x9dFM>\x9dFM\xbe\xa5h\xc5\xbd\xach\xc5=\xbcu\x81\xbe\xb7u\x81>Dnp\xbe=np>be\x0c\xbe\x8ae\x0c>A\xf6\x8a=O\xf6\x8a\xbd\xed\x8be\xbe\xef\x8be>m2\x93\xbek2\x93>/\x927\xbd)\x927=vSG=tSG\xbd\x92\xb4\x9a=\x93\xb4\x9a\xbd\x8cl\x03<\x8cl\x03\xbcs\xb0\xf3=\x85\xb0\xf3\xbd\'M\\=\x1dM\\\xbdl\xdbO=i\xdbO\xbd\xb4\xc8h=\x81\xc8h\xbd\xb2f\x8a<Sf\x8a\xbc\x98\x1c@>\x9a\x1c@\xbe\xf9u\xa2=\xefu\xa2\xbd\xe8j\x80\xbd\xe3j\x80=\x90\xec\x02>\x84\xec\x02\xbe\x02%\x93\xbe\x02%\x93>n_\xcd\xbce_\xcd<nH\x03\xbcTH\x03<\xaa\xdc=>\xaa\xdc=\xbe\xefx\x93>\xedx\x93\xbe\xe4=#\xbe\xe6=#>\x0b\x07n<\xef\x06n\xbc\x8ad\xde=\x87d\xde\xbd\xc3<{<\xbf<{\xbc}\t\xce\xbez\t\xce>\xfc\xc7\x18>\xfc\xc7\x18\xbe\x8f\xe1\xb0=\x8f\xe1\xb0\xbd\x8c^\x1c?\x89^\x1c\xbf\x90\xec\x02>\x84\xec\x02\xbe\xf9u\xa2=\xefu\xa2\xbd\xb6\x81\x07\xbd\xbf\x81\x07=\xfb\xaf\xf9\xbe\xff\xaf\xf9>\xa4,\x14\xbf\xa5,\x14?\xf9\x06\x80>\xf8\x06\x80\xbe#\xb4\xc2>#\xb4\xc2\xbe\x18\xa5\x89>\x18\xa5\x89\xbe-?\x0f=7?\x0f\xbd\x9e\xb76>\x9c\xb76\xbe\x9b4r\xbe\x9c4r>9\x84\xbe\xbe8\x84\xbe>\xf1\xee\x9e\xbd\xfb\xee\x9e=\xbc\x9b\xa4>\xbc\x9b\xa4\xbe\x17\x89Y\xbe\x1d\x89Y>%\x89\xe8\xbe$\x89\xe8>_x\x89\xbebx\x89>\xdfv\x8f>\xdbv\x8f\xbe\xe5\xa3<>\xe3\xa3<\xbe\x97IB\xbd\x8cIB=\xd0\xe9\xc0>\xcd\xe9\xc0\xbe\xaf\xe2{<\xb7\xe2{\xbc\xfc\xac\x0f>\xfc\xac\x0f\xbe\xb9\x9f\xd4\xbe\xb9\x9f\xd4>\x1d7\xe2<\x1e7\xe2\xbc\x05\x1d-\xbf\x05\x1d-??\xbb\xfa>>\xbb\xfa\xbe@ @=" @\xbd]\xa5\x13<:\xa5\x13\xbc/r\x8b>+r\x8b\xbe 8\x1f>&8\x1f\xbe\xbe\xf7E\xbd\xd5\xf7E=v\x84\x18\xbd{\x84\x18=\x85_\x1d>\x82_\x1d\xbe1p\x1e>1p\x1e\xbe\xd8\\\x98=\xd7\\\x98\xbd\n\xe6\xaa>\n\xe6\xaa\xbe\xbf\xaa\x15\xbd\xe9\xaa\x15=R\x85\xfd>V\x85\xfd\xbe\xc0\xabJ\xbe\xc3\xabJ>\xacA\xe4>\xabA\xe4\xbe\xef$\x18\xbe\xf6$\x18>\xc2\x1f\x1a?\xc2\x1f\x1a\xbf\x1d\xc6\xbd=\x1b\xc6\xbd\xbd\x80\x13T=\x98\x13T\xbd\x86\x04b\xbe\x8a\x04b>/\x01j\xbe6\x01j>\xe7\x9f#\xbe\xf5\x9f#>9W\x17\xbe9W\x17>\x107\x9f\xbd\x107\x9f=\x9a\xeeJ=\x9b\xeeJ\xbd\xdb\xd2E\xbe\xdc\xd2E>\xfd\xba0\xbe\xfc\xba0><\xe0O=<\xe0O\xbd\xe7\x0e\xa5=\xe9\x0e\xa5\xbd\x0b\xb2\xff\xbd\r\xb2\xff=\xa1\x07\xb4=\xa1\x07\xb4\xbdx\x8da>z\x8da\xbe.h\x06>.h\x06\xbe\x94i\xaf\xbd\x94i\xaf=]\x1c9\xbbf\x1c9;\xae\x8e^<\xaf\x8e^\xbc`4\\\xbe`4\\>6\xa2i\xbe5\xa2i>\x00w\x10=\x00w\x10\xbd\x92\x0bI\xbc\x93\x0bI<,\xad\x13>,\xad\x13\xbe\x07f.>\x07f.\xbe<H\x0f<BH\x0f\xbc\xf3\x8cp\xbd\xf3\x8cp=\xe39\xcc\xbd\xe29\xcc=\x1bJ\xd4=\x1dJ\xd4\xbd\x9fi\x9e<\x9fi\x9e\xbc\x93O\xbf<\x93O\xbf\xbch\xbd\x90\xbch\xbd\x90<\x99\tp<\x9d\tp\xbcB\xbdP>B\xbdP\xbe_\xe0d9\x1c\xe0d\xb9H\x8a\x1e<F\x8a\x1e\xbc\x15\xf3.=\x14\xf3.\xbd\xc4!\x88\xbb\xc4!\x88;\xcfQ\x06<\xcfQ\x06\xbc\x14,H\xbd\x14,H=0\\\xc1=2\\\xc1\xbd\xc1\xb7\xe2<\xc1\xb7\xe2\xbc\x89\xa9\x05=\x89\xa9\x05\xbd\xf8\xf8\x12\xbc\xf7\xf8\x12<G$]:I$]\xba'
tbasS'strict'
p49
I00
sS'readonly'
p50
I00
sS'type'
p51
g1
(ctheano.tensor.type
TensorType
p52
g3
NtRp53
(dp54
S'broadcastable'
p55
(I00
I00
tp56
sS'dtype'
p57
S'float32'
p58
sS'numpy_dtype'
p59
g48
sS'sparse_grad'
p60
I00
sg40
NsbsS'allow_downcast'
p61
Nsbsg40
g41
sS'owner'
p62
Nsg51
g53
sbaa(lp63
S'needs_reformat'
p64
aI00
aa(lp65
S'input_space'
p66
ag1
(cpylearn2.space
VectorSpace
p67
g3
NtRp68
(dp69
S'dim'
p70
I123
sS'_dtype'
p71
S'float32'
p72
sS'validate_callbacks'
p73
(lp74
sS'sparse'
p75
I00
sS'np_validate_callbacks'
p76
(lp77
sbaa(lp78
S'mlp'
p79
ag4
aa(lp80
S'W_lr_scale'
p81
aNaa(lp82
S'names_to_del'
p83
ac__builtin__
set
p84
((ltRp85
aa(lp86
S'max_row_norm'
p87
aNaa(lp88
S'output_space'
p89
ag1
(g67
g3
NtRp90
(dp91
g70
I2
sg71
g72
sg73
(lp92
sg75
I00
sg76
(lp93
sbaa(lp94
S'non_redundant'
p95
aI00
aa(lp96
S'istdev'
p97
aNaa(lp98
S'binary_target_dim'
p99
aNaa(lp100
S'n_classes'
p101
aI2
aa(lp102
S'sparse_init'
p103
aNaa(lp104
S'no_affine'
p105
aI00
aa(lp106
S'layer_name'
p107
aS'y'
aa(lp108
S'irange'
p109
aF0
aa(lp110
S'desired_space'
p111
ag1
(g67
g3
NtRp112
(dp113
g70
I123
sg71
g72
sg73
(lp114
sg75
I00
sg76
(lp115
sbaa(lp116
S'_params'
p117
a(lp118
g1
(g16
g3
NtRp119
(dp120
g19
Nsg20
(itheano.gof.utils
scratchpad
p121
(dp122
g23
(lp123
(S'/Users/Yang/PycharmProjects/pylearn2/pylearn2/utils/call_check.py'
p124
I99
S'checked_call'
p125
S'return to_call(**kwargs)'
tp126
a(S'/Users/Yang/PycharmProjects/pylearn2/pylearn2/models/softmax_regression.py'
p127
I66
S'__init__'
p128
S'init_bias_target_marginals=init_bias_target_marginals)],'
tp129
a(g25
I1173
g128
S"name='softmax_b')"
tp130
a(g33
I74
g34
S'borrow=borrow)'
tp131
asbsg36
g1
(g37
g3
NtRp132
(dp133
g40
S'softmax_b'
p134
sg42
(lp135
g44
(g45
(I0
tS'b'
tRp136
(I1
(I2
tg48
I00
S'c0\x98>a0\x98\xbe'
tbasg49
I00
sg50
I00
sg51
g1
(g52
g3
NtRp137
(dp138
g55
(I00
tp139
sg57
S'float32'
p140
sg59
g48
sg60
I00
sg40
Nsbsg61
Nsbsg40
g134
sg62
Nsg51
g137
sbag17
aaa(lp141
S'b'
ag119
aa(lp142
S'b_lr_scale'
p143
aNaa(lp144
S'max_col_norm'
p145
aNaa(lp146
S'extensions'
p147
a(lp148
aa(lp149
S'input_dim'
p150
aI123
aatRp151
baaa(lp152
g66
ag68
aa(lp153
S'layer_names'
p154
ag84
((lp155
S'y'
atRp156
aa(lp157
S'freeze_set'
p158
ag84
((ltRp159
aa(lp160
S'yaml_src'
p161
aS'!obj:pylearn2.models.softmax_regression.SoftmaxRegression {n_classes: 2, irange: 0.,\n  nvis: 123}\n'
p162
aa(lp163
S'rng'
p164
acnumpy.random
__RandomState_ctor
p165
(tRp166
(S'MT19937'
p167
g44
(g45
(I0
tS'b'
tRp168
(I1
(I624
tg47
(S'u4'
I0
I1
tRp169
(I3
S'<'
NNNI-1
I-1
I0
tbI00
S'\xb84\xca\xc4\xa7\xcc\xa6\xe1\x8b\xfau\x90\x11"eY\x14\xe48n\x03\x844\x1d\x0f)\x97T\x98\xf1\x06\x14\xee\x97d#\x13\xe6\xebh\xe9\x15[\xc9M\xccKbr\xae\x8dI\x9d\xf8\xdf&D$\x88\xaf \xee\x04J\x19\x92\x9f\x88\xf7\xdb\xef\x17\xc0\x8a\r\xb8c\x1c\xfeN\xfbw,k\xe6\x89F\x17\xd0za\xb7\xcb\xd2\x0b\x87\xe7\xb5~4\xffZ\x7fQ\x989\xddC\xdd\xa5\xf5\xeb\xedi\xc8\xee\x08\x9a\x93\xb1\\\x9f\x01m\xe6\xfd\xb6A\xbc\x1a\xed:\xf0:\xb8\x92\x0e\xd9i\xe0\x08\x89\x9f\x0e\xa2v\x1f\x1a\xcc*\xa62\x02\xef\x1c\x85<\x9fTW\x05\xb4\xc2\x14\x18\x86]\xaf\xdbw1\nm\xcdQ\xba\x1f\xf6$\x89X\x8f\xae<\xa1\xc8\x06\xd0(\x9f\x12L\xa6I\x7f\xe6a%\xd3\xfc\x08\x14\xf7\x02C\xf8\x1ev\x18,_\x846\x8f\xef>P@\xec{\xb6\x0e\x92F\x02\xeb60\xf1 \x94%\xdb\x9cb\xbc\x9c\xc3a\xf6\x02M\x1c\xc9\xf4UIK}%Y\x0f\x82\x01\x15I\xdb\xc3f\xb8eP\x95\xa5S\xbb\xb6\xce<\xc1\x04B>o\x07\xd6\x03\xbeq\x87\xe2\xe6lN\x8e\t\xefa\xff\x90\xb9oOxY\xfc\xedp\xc3\x1e\x02kY\xf2\xaf\xcaZV\x00y\xc1\xce\x14\xff\x93\xbdP\xf9~\x93~\xf9V\x1aU\xe2-3\xb9\x02\xdb\xbdJ5N\xca\x82\xb2\xa9CY\x1e\x02\xf4wu/BA\x99\x94s\x15tn\xb1\xb9\x9c8\xca\xdc\x15\x0f\x9dI\x02N$M\x05XkS\xc7\xa7\xb4\xde\xd5\xe5\x81\x85\xe6\xa1\x1c\x9f\x03h\x9bP]\xec\x07\x89\xcf\xaf=L\x92\x0b}\x93~5\x8f\xc4}\xae\x97\xae\xd5]L\xea\x9c5i|\xc6\\\x9dAj\xb6\xb6\xb8\xe1\xc5CO;v\x17Wq\xe2A\x82,2\xa2\xb9\xb8\xads\xc4g\x01\x96\xb7\xca\xde\xad\xa5-!\xa9\xfb\xda\xec\x14\xd3>[\xe6\x82M\xa5\x8c\xf0\x1b\xb7\xff\n\xd3}\xa4=\xb3\n,\xe5\'`m\x8e\x85\xdca\x8a\xd6\xfa\xc3\x88Ls\x18\x87\xc9lx\xcb\xf1\xd1\x9f\x8b\x0c\'b\x05\x11\xe5\xc20\r^\xbc_\x07N\xec\xaf!/\xaf\xf9\xa7\x1c\x91\xa5*4\xa3/.\xdc2\x13\xbd\xca\x84\xc4\x1a|\xea\x1b\xc1\xde\xd2\xe9\xaet0N\x19\xde\xff\x8f\xfe\xe1lm\x18il\xf5\x9fbQ\x13\n@\xc3\xb4\xb2\t\x8a\t\xe7E\x83<\xb6\xc2\x87n\xed\xf0\xb6\xc2\x9fm\x84\xcd\xf8\xe0\xa3\xa2\xb9ej\xd5\xc6\xc3\xd4\x1f\x04\xca\xfc`2\xc2\x02\xa0\x86Y\xe23\xa7A\xad\x94\xb8\xfc\x19\x1d\xb9_\xff\xcf-k\x9ec/f%\xbf\x11\x02\x86\x08\xf1\xc9\xe1\x8dc\x80\xdc&I\t\xae\x8e\x18\xecy\xe2\x04\x04u:x\x92\xaeV\x02r\x90QFQ?&\x00\x1evP\x9e+\x9aN\x13\xa5Bj\rS\xaa\xae\xb7\xee\x84N\xdc\x01\x83\xf6\xdaF\xec\x15\xebY\x8a\xa9\xcf\xf8\xe0\x07x\xab\xe6\xe3E\xf4\x94a]\xc9\xa3\xfd\xfc\xce\xb9n\xe1\x0e\x08\xdaY+\x15P\xba\xb9w\x14t*\x19\xd2\xcb\x115\xd4$\tc8\xc8\x9c\x8e\xc9\x82\xb0w\x98\xe5\xf0\x14~ND\x08\x87\\`\x92P d\x19Y\xc5\xa5`x\xdfI\xd2\xd9\xfe\xebpG0sb\x02\x06Jh\x93\xeb\xaaM\x828:\x97?x\x99\x9a\x0b\xa1\xc6\x18\x06\xbd7\xeb\n\xde\x169\xb4\xb8\x88\xe6tN\x18J\xf2\xde\x00\xfd?\xeb3\xbcD\xe3\x9a\xad!A\xdc\xa0\xf2\x07F\xed\xc5\x7f\x86\x7f\x89\xd2%\xfc\x05\x96!\x13z\xe7\xf1\xd2\xcb\xbc]GY\xe2l\x04\x9f;\x16)\x8e\xc4\x9f\x85\xf5\xbc39\xfb\x8f1SXlRMJ\xdcr/J\x9cK*\xa7\xd0\xa00\xablwcX\xc8yB\xefIuf\xab\xb2\xc4\xf7\x13\xb0\xb1\x90\xe9)\x0f\xe8\xaf\xbb\xc3T\xc3\xf4\x1b\xa5 9GW"\xdd\xc1\x82\x06G\x91*\xbba\x19\x8fuE\x90\xa5\x80\xab@x#\xeb\'\xf8-\xc9\x1e\xbf\xd1T\xbb\x99\xd9w)\xea\xe4\xbdUe6\xb3\x83B\x92\xc7b\xd2\xec\'\xeft\xad\x129\x0b\xec\x02\x91\xc8\x8f\x03\xf1Y\x0fV\xc2\xc8\xdeXjl(\xb2\x14\x96u\xdb_\xc2\x05\x9c\xf7:#\xe2\x9fv\xf1\xeb\xcal\x1a@"\xfc\xe9y\xdd_w\xb2\xce\xcd`\x83\xd6=\xcc\x04\'\x8e\xf6\xf4\x9e\xcbJn\xf2a\xda\xf2c\x03B\xc5\xca\xd6\xe8\xa2]\xe9Mgi\xb3[\xf8\xf6(\xf6\x05\x8a4U\x82%\x85\xf6\xb5W\xbe\x18:?!u\xdf\xfd^\x8c\xb0\xb3\x83h\xda\xae\xcb\xab\x98\xfa\x02\xb3\x8anwI\'\x80\x99\xd4\xc2\x8f).#\xb5>\x9b\xd8B\xa4d_\xe2t\x8ac5\x06\x7f;\xb6G^\x9f\x9a\x86\x08\xc4\xbe\xdc\x853\xe3\xfc%\xeb\xf2\xd5N\x8a\xca\x97\xc3\x7fQ\xcb\x11\nl\xcd\xe1\x14\x18y\xdcc\x1128%0\x80lx=\x10)o5\xf6)MM\x1c\xdb3\x14\xc91[;\x0f\xfb>\xa0DP\xbd\xbd\x9dWm\x16\xec\x08\x91?b\xe1\xb5\r\xcd\x93:\x1e\x98\xf3\xb5\xe1\x1b\xe7\x00\xe7\xd8*~B\x1d\xd5\x89\xdf\xb7H\xe2J\xcf\x9c\xf2\x1e\x95\xfe\x0bcI\xba\x85$W|\x86\r\xe0\xa53]\x85\xf6\x08\xa7\xbb\x03/\xecy\xe5\xb0\xde1c\xee\\\x96\xb5I`i\x97\xf2\x99\xc0\xe8t\xf4\xc1\xf7E\xa7\xd6\x9c\x02\x8fO<\x84`xn\xe5\\\xf4\x90(\xaf\x8dsf\xd8V\x11\xa2E\x026\xe8\x1b\x8eu\xba]Y\xb6gt5\x07\xc0M\x04:`\x183\xccY\xb1zv\xe5\xb7\xbb\x1c\xa7Z\xda\x01\xfd\x15\xbe\xacP!=\xbcg\xfa\xf3#\xea\x1aV&\x05\xf9W\xd8\xa6\xc8r\xc1\x164\xb1\xfb\xe5E1C[\x920\xa65\xb0`\xea\xfc\x9c =bS\x97m\xd1\xcf\xc9\xa8\xf3k*\xa5\xf7_\xfcQ\x90\x84\r\x9bs\xfb\xee(l/_\x06\x05\x1eQ\xff\x17a\xabI\xeb\x06]\xecX\x87\x92\x97u\x83\xd7\xaa\x85\x86Q\xe4L7N\xa3\x1a\xd5\x8c;\xb7:\xaa\xf7=3Xp\xc6\xbb\x83\xa1y\xc7\xd58\xcc\xda7\xd0\x0b7\xa8+\xea\x08\x9f\xde\xa5\xef\x87\xc43p\x11VdN\xc7\xa1\xee\xaa\xe5\xa7pD\x93s\xf6\x05y\xf6\xd95zw\x95\xd8\x05\xcf&\x98\x9a \x80\xbd\x81\xaehc1\n\xee\xe3\x1eu\xeb\x05\x9cQw\xbe\x9d\xd6A\xd0\xdf*[m\xc7\xc6\xc8\xce\xe04\x15\x16R==\t\x98\xf9\x17\x9f>\xce\xf9\xff\xc1\xc7\xa1\xd7\x8f-\xcd\x04&\'[\xce\x82\x04\xb6\xc2\xbe\xd2\xdbuE\x1b>\xc3%\'\x90=\x03\x9b\x05\x83RB\xf33\xba0_\xca\xe7\x19\x93\x15H\xf6\x84:%\x05\xed\xc2\x01d\x98\xb9\xdeLX\xf1\xbclu\xbc?c\xd6\x13|T\xe9}\x08N\x8emB~\xf6\x1e\x8dRp\x83\xb2~&\x82d\xe8\xc4\x18\x18\xba\xa1\xff\xe1;dT\xdcm\xd6\x87>b\x1d\x05{U\xf8\xf1\x9d\x9d\xfb\xf9=m\x19\xf74E\xddID\xe9G\x17\r\xf1\x90\xd0\xcbY\x19\x9c\xe6dX\xb8\xdf\x8b\xb3\xfan\x88\xc7\x8c\xd9\x8dl\xf0\xd7\x07\t\xbc\xd1v\x15R:\x00G\x1d\xf1\xfc\xed\xb8Z\x8f\x9bkmq\xf2M\xd1\xe6\xa7\xc6A\x98\xc1\x8b\xd6m\xa1\xde\x81\xda\xaf\xd9\x1b\xa9\xea\xd27/Wj-\xfbl\xd9;\r\x90NN\xf4\x08\x1b\x0f\n\xb4t\xdc\xd6\xeb\xadA\x87j}\x92W\xe9\xf8{\xf88[\x18\xa4P\xd9\xb1\xf9+Gy(2Q\x11\xc1\x88\x18\x90\xb7\xe3\xc5\x8ez\xcc\xfc\xf4\xd9\xaeU\xb1\xf2\xb3\xf3\xb2\x80q\xf6\x18i\x17?\x15\xca\x11#)G\x93\x9c\xb2]\xbev\xc2\x8b\x9e\x87\x80(a*>\xb1P7\xda1\x0c\xd1(p\xa0\x17p\x04\x1e\x04(\x9e\x18,\xf0\x19.\x82(cg\x00\xeet`?_\x06k0\x04\x80\xc6%\xa2\xc6\xce\xd0H\xbdGS<\xe2 \x92\xbc^\xfb\xf5c\x05\xf5!\x90\x98J\x8b\xc9\xb4 _G\xab^\x18@2\x804\x19Z\xe5ZI\xe5=`\x95\xfe&(\xaf\xae\xf0\xb8\xbcT\xf6\xdd\x82\'\x95A\x95uB.\xa2~\x91\xcf\x1d\xc7\\\x9b\xfc\xc6V\xa3\xae\x1dx\xc9im8[\x8b\x9d\x1f\x1f6*\xa5\xbc\x9d\xd2\xc1:\x99\xa8z\x84\r\x91\x044\x8d<,\x10\xe3\x11\x85\x93!:$\xa8\x054]\xf1a\xaf\x90\x0c\xf6\xd3V\xaa\xb1\x83q\xdeG\xf6\x06\xffi\xb9\xa9\xf11\x99&@k\xc1\x81H\xee\xa1\x04\x97\xfe\xad\xa1\xce[\x1b\xb7\xf0/\x0e@z\xf0l_\xcb&\xc1j\xc4b(\x8b\x04\xd9\xafw\x06\xa7f9\x80\xf1y\x8bL>\xe2\xfejj"\xdft\xe3g<\xd5\xf7I4\xec:c`2[^:O\xd7\xfaB\xd21\x89j\xd6#\x81\t\xb0$\x10\xef\x81Z9O3\xaa\x08\x0b7\x1e\x0cb\xff\x14\x7f\x81\x92\xcc\x0c\xef\xfc#\x1c>I\xed.\xb4\'&e\t\xcdY6c\n\r\xa9\xae\x0cI\xea\xe1\xc6\xb8\x0b\x07\xea\x01u\x04I6O\xa8k4L"=\xbd\xa5\t\x07\xc7\xc0\xcd?\xf6K\xa4\xd9\x1d8\x8eov\x92\xb1\xc9\x0f{\xe5D\xb4S\xe4\x81\x987p\x1b\x1c$\xb2o\x9f\x93c\xf6v\x15\x8b\x7f\xc8\xc1\xb2\x94\xd5M\x94\x93\n\xae\x0bP\x02*\x12\x91\xdek\xef\xf9\xbd\xf5.\x89\xab\x7f\xfaW3\xa8\x94\xc8\x99BQ\xe9_\x90\x96s\xe9$\xe0i\xc9\xb9\xf6C\xb7A\xbb\x90\xd0\x88.\xc3\x88\xc8\x1a\xda\xc7\xad\xbeS\x1d\x82)\x19\x0b\x94\xd9e N\xf6@\xa0\x18\x0c\xd7\xe4\xbf\xbd\xad\x8a\xd6\xe7\x8a\x98\xfd\xb2\xfb\xdd\xf5\x96\xd1\xf2vj\x97\x01\xa7\xa1\xcfS{\xbe8\xac8\x91\xc4\x85\x12j]o\xba\x91\xbf\t\xd3\xff\x07\x13\xc3:v\x07\x88)\x89?\x89\xd1\xdd\xedq\xcd\x7fR\xf7\x16\xdf\x8f\x80\xa5\x93\x84>\x07\xa075w\xa4\x8a\x8f\xd4T\x8bV\x12\n\xa8\x0ed\xcc\xe5\x13\xef\x078\x95\xdbjJ\xc1\xd2\x94\x02\xa6\x17\x9b?~lN\xb4+\x07\x8a\x08\x952C\x10\x0e\x1b\xc1\xb1\xbds\x7f\xf3&\xd5\xc6Y\xab\xb9dx\xe1\x07\x0b\xb9 \x11V\x17\xf6R\xc4%\x03C\\zoB\xbb\x7fKF_;M\xfe+q\x1e-\xa5-\xc5\xcf\xaf\xafr\x05\xfc\x94\xcc\x82=\x9f\x13\x9931\x8e\xc1\x10\''
tbI492
I0
F0
tbaa(lp170
S'_tag'
p171
accollections
defaultdict
p172
(c__builtin__
dict
p173
tRp174
S'MonitorBasedSaveBest'
p175
(dp176
S'channel_name'
p177
S'valid_y_misclass'
p178
sS'hostname'
p179
S'yyd.home'
p180
sS'save_path'
p181
S'/Users/Yang/PycharmProjects/pylearn2_example/pylearn2-practice/softmax_regression_best.pkl'
p182
sS'best_cost'
p183
cnumpy.core.multiarray
scalar
p184
(g48
S'\xf1\x00\x13>'
tRp185
ssaa(lp186
S'_target_source'
p187
aS'targets'
p188
aa(lp189
S'_nested'
p190
aI00
aa(lp191
S'monitor_targets'
p192
aI01
aa(lp193
S'seed'
p194
a(lp195
I2013
aI1
aI4
aaa(lp196
g147
a(lp197
aa(lp198
S'batch_size'
p199
aNaa(lp200
g83
ag84
((ltRp201
aa(lp202
S'force_batch_size'
p203
aNaa(lp204
S'_input_source'
p205
aS'features'
p206
aa(lp207
S'monitor'
p208
ag1
(cpylearn2.monitor
Monitor
p209
g3
NtRp210
(dp211
S'_batch_size'
p212
(lp213
I10000
aI10000
aI10000
asS'_dirty'
p214
I00
sS'_flat_data_specs'
p215
(g1
(cpylearn2.space
CompositeSpace
p216
g3
NtRp217
(dp218
g73
(lp219
sS'components'
p220
(lp221
g68
ag90
asg76
(lp222
sb(g206
g188
ttp223
sS'_epochs_seen'
p224
I5
sS'_num_batches'
p225
(lp226
NaNaNasS'_examples_seen'
p227
I146505
sS'time_budget_exceeded'
p228
I00
sS'channels'
p229
g5
((lp230
(lp231
S'test_objective'
p232
ag1
(cpylearn2.monitor
MonitorChannel
p233
g3
NtRp234
(dp235
S'epoch_record'
p236
(lp237
I0
aI1
aI2
aI3
aI4
aI5
asS'doc'
p238
NsS'val_record'
p239
(lp240
g184
(g48
S'\x18r1?'
tRp241
ag184
(g48
S'\xb5<\xa6>'
tRp242
ag184
(g48
S'\x1e2\xa6>'
tRp243
ag184
(g48
S'\x84_\xa6>'
tRp244
ag184
(g48
S'\x0f$\xa6>'
tRp245
ag184
(g48
S'l\xc6\xa6>'
tRp246
asS'batch_record'
p247
(lp248
I0
aI3
aI6
aI9
aI12
aI15
asS'time_record'
p249
(lp250
F26.789327144622803
aF27.699034929275513
aF28.628019094467163
aF29.560002088546753
aF30.461482048034668
aF31.380002975463867
asS'example_record'
p251
(lp252
I0
aI29301
aI58602
aI87903
aI117204
aI146505
asbaa(lp253
S'test_y_col_norms_max'
p254
ag1
(g233
g3
NtRp255
(dp256
g236
(lp257
I0
aI1
aI2
aI3
aI4
aI5
asg238
S'This channel came from a layer called "y" of an MLP.\n<class \'pylearn2.models.mlp.Softmax\'>.get_monitoring_channels_from_state did not provide any further documentation for this channel.'
p258
sg239
(lp259
g184
(g48
S'\x00\x00\x00\x00'
tRp260
ag184
(g48
S'"\x8d\x0c@'
tRp261
ag184
(g48
S'\x96\xc8\x13@'
tRp262
ag184
(g48
S'\xcdM\x15@'
tRp263
ag184
(g48
S'\xa8k\x1b@'
tRp264
ag184
(g48
S'!\xd0\x1d@'
tRp265
asg247
(lp266
I0
aI3
aI6
aI9
aI12
aI15
asg249
(lp267
F26.789327144622803
aF27.699034929275513
aF28.628019094467163
aF29.560002088546753
aF30.461482048034668
aF31.380002975463867
asg251
(lp268
I0
aI29301
aI58602
aI87903
aI117204
aI146505
asbaa(lp269
S'test_y_row_norms_min'
p270
ag1
(g233
g3
NtRp271
(dp272
g236
(lp273
I0
aI1
aI2
aI3
aI4
aI5
asg238
S'This channel came from a layer called "y" of an MLP.\n<class \'pylearn2.models.mlp.Softmax\'>.get_monitoring_channels_from_state did not provide any further documentation for this channel.'
p274
sg239
(lp275
g184
(g48
S'\x00\x00\x00\x00'
tRp276
ag184
(g48
S'p\xbd\xd39'
tRp277
ag184
(g48
S'\xe3\xa5":'
tRp278
ag184
(g48
S'\xc4\xb6Y:'
tRp279
ag184
(g48
S'\xc8\xcf\x18:'
tRp280
ag184
(g48
S'\xf8\xd6\xa19'
tRp281
asg247
(lp282
I0
aI3
aI6
aI9
aI12
aI15
asg249
(lp283
F26.789327144622803
aF27.699034929275513
aF28.628019094467163
aF29.560002088546753
aF30.461482048034668
aF31.380002975463867
asg251
(lp284
I0
aI29301
aI58602
aI87903
aI117204
aI146505
asbaa(lp285
S'test_y_nll'
p286
ag1
(g233
g3
NtRp287
(dp288
g236
(lp289
I0
aI1
aI2
aI3
aI4
aI5
asg238
S'This channel came from a layer called "y" of an MLP.\n<class \'pylearn2.models.mlp.Softmax\'>.get_monitoring_channels_from_state did not provide any further documentation for this channel.'
p290
sg239
(lp291
g184
(g48
S'\x18r1?'
tRp292
ag184
(g48
S'\xb5<\xa6>'
tRp293
ag184
(g48
S'\x1e2\xa6>'
tRp294
ag184
(g48
S'\x84_\xa6>'
tRp295
ag184
(g48
S'\x0f$\xa6>'
tRp296
ag184
(g48
S'l\xc6\xa6>'
tRp297
asg247
(lp298
I0
aI3
aI6
aI9
aI12
aI15
asg249
(lp299
F26.789327144622803
aF27.699034929275513
aF28.628019094467163
aF29.560002088546753
aF30.461482048034668
aF31.380002975463867
asg251
(lp300
I0
aI29301
aI58602
aI87903
aI117204
aI146505
asbaa(lp301
S'test_y_col_norms_mean'
p302
ag1
(g233
g3
NtRp303
(dp304
g236
(lp305
I0
aI1
aI2
aI3
aI4
aI5
asg238
S'This channel came from a layer called "y" of an MLP.\n<class \'pylearn2.models.mlp.Softmax\'>.get_monitoring_channels_from_state did not provide any further documentation for this channel.'
p306
sg239
(lp307
g184
(g48
S'\x00\x00\x00\x00'
tRp308
ag184
(g48
S'"\x8d\x0c@'
tRp309
ag184
(g48
S'\x96\xc8\x13@'
tRp310
ag184
(g48
S'\xcdM\x15@'
tRp311
ag184
(g48
S'\xa8k\x1b@'
tRp312
ag184
(g48
S'!\xd0\x1d@'
tRp313
asg247
(lp314
I0
aI3
aI6
aI9
aI12
aI15
asg249
(lp315
F26.789327144622803
aF27.699034929275513
aF28.628019094467163
aF29.560002088546753
aF30.461482048034668
aF31.380002975463867
asg251
(lp316
I0
aI29301
aI58602
aI87903
aI117204
aI146505
asbaa(lp317
S'test_y_max_max_class'
p318
ag1
(g233
g3
NtRp319
(dp320
g236
(lp321
I0
aI1
aI2
aI3
aI4
aI5
asg238
S'This channel came from a layer called "y" of an MLP.\n<class \'pylearn2.models.mlp.Softmax\'>.get_monitoring_channels_from_state did not provide any further documentation for this channel.'
p322
sg239
(lp323
g184
(g48
S'\x00\x00\x00?'
tRp324
ag184
(g48
S'\xa0\xf7\x7f?'
tRp325
ag184
(g48
S'n\xf9\x7f?'
tRp326
ag184
(g48
S'e\xf8\x7f?'
tRp327
ag184
(g48
S'\\\xfa\x7f?'
tRp328
ag184
(g48
S'[\xf9\x7f?'
tRp329
asg247
(lp330
I0
aI3
aI6
aI9
aI12
aI15
asg249
(lp331
F26.789327144622803
aF27.699034929275513
aF28.628019094467163
aF29.560002088546753
aF30.461482048034668
aF31.380002975463867
asg251
(lp332
I0
aI29301
aI58602
aI87903
aI117204
aI146505
asbaa(lp333
S'test_y_min_max_class'
p334
ag1
(g233
g3
NtRp335
(dp336
g236
(lp337
I0
aI1
aI2
aI3
aI4
aI5
asg238
S'This channel came from a layer called "y" of an MLP.\n<class \'pylearn2.models.mlp.Softmax\'>.get_monitoring_channels_from_state did not provide any further documentation for this channel.'
p338
sg239
(lp339
g184
(g48
S'\x00\x00\x00?'
tRp340
ag184
(g48
S'\x0b\x05\x00?'
tRp341
ag184
(g48
S'c\x04\x00?'
tRp342
ag184
(g48
S'\x02\x02\x00?'
tRp343
ag184
(g48
S'Z\x04\x00?'
tRp344
ag184
(g48
S'\xd3\x02\x00?'
tRp345
asg247
(lp346
I0
aI3
aI6
aI9
aI12
aI15
asg249
(lp347
F26.789327144622803
aF27.699034929275513
aF28.628019094467163
aF29.560002088546753
aF30.461482048034668
aF31.380002975463867
asg251
(lp348
I0
aI29301
aI58602
aI87903
aI117204
aI146505
asbaa(lp349
S'test_y_row_norms_max'
p350
ag1
(g233
g3
NtRp351
(dp352
g236
(lp353
I0
aI1
aI2
aI3
aI4
aI5
asg238
S'This channel came from a layer called "y" of an MLP.\n<class \'pylearn2.models.mlp.Softmax\'>.get_monitoring_channels_from_state did not provide any further documentation for this channel.'
p354
sg239
(lp355
g184
(g48
S'\x00\x00\x00\x00'
tRp356
ag184
(g48
S'\x1cio?'
tRp357
ag184
(g48
S'"q\x84?'
tRp358
ag184
(g48
S'`uy?'
tRp359
ag184
(g48
S'\x92[\x82?'
tRp360
ag184
(g48
S'\xa9{v?'
tRp361
asg247
(lp362
I0
aI3
aI6
aI9
aI12
aI15
asg249
(lp363
F26.789327144622803
aF27.699034929275513
aF28.628019094467163
aF29.560002088546753
aF30.461482048034668
aF31.380002975463867
asg251
(lp364
I0
aI29301
aI58602
aI87903
aI117204
aI146505
asbaa(lp365
S'test_y_misclass'
p366
ag1
(g233
g3
NtRp367
(dp368
g236
(lp369
I0
aI1
aI2
aI3
aI4
aI5
asg238
S'This channel came from a layer called "y" of an MLP.\n<class \'pylearn2.models.mlp.Softmax\'>.get_monitoring_channels_from_state did not provide any further documentation for this channel.'
p370
sg239
(lp371
g184
(g48
S'N\xe5q>'
tRp372
ag184
(g48
S'F\x06\x19>'
tRp373
ag184
(g48
S'w\x85\x18>'
tRp374
ag184
(g48
S'\xfbv\x19>'
tRp375
ag184
(g48
S'\x8e\xf4\x17>'
tRp376
ag184
(g48
S'\x87\xaa\x1b>'
tRp377
asg247
(lp378
I0
aI3
aI6
aI9
aI12
aI15
asg249
(lp379
F26.789327144622803
aF27.699034929275513
aF28.628019094467163
aF29.560002088546753
aF30.461482048034668
aF31.380002975463867
asg251
(lp380
I0
aI29301
aI58602
aI87903
aI117204
aI146505
asbaa(lp381
S'test_y_col_norms_min'
p382
ag1
(g233
g3
NtRp383
(dp384
g236
(lp385
I0
aI1
aI2
aI3
aI4
aI5
asg238
S'This channel came from a layer called "y" of an MLP.\n<class \'pylearn2.models.mlp.Softmax\'>.get_monitoring_channels_from_state did not provide any further documentation for this channel.'
p386
sg239
(lp387
g184
(g48
S'\x00\x00\x00\x00'
tRp388
ag184
(g48
S'"\x8d\x0c@'
tRp389
ag184
(g48
S'\x96\xc8\x13@'
tRp390
ag184
(g48
S'\xcdM\x15@'
tRp391
ag184
(g48
S'\xa8k\x1b@'
tRp392
ag184
(g48
S'!\xd0\x1d@'
tRp393
asg247
(lp394
I0
aI3
aI6
aI9
aI12
aI15
asg249
(lp395
F26.789327144622803
aF27.699034929275513
aF28.628019094467163
aF29.560002088546753
aF30.461482048034668
aF31.380002975463867
asg251
(lp396
I0
aI29301
aI58602
aI87903
aI117204
aI146505
asbaa(lp397
S'test_y_row_norms_mean'
p398
ag1
(g233
g3
NtRp399
(dp400
g236
(lp401
I0
aI1
aI2
aI3
aI4
aI5
asg238
S'This channel came from a layer called "y" of an MLP.\n<class \'pylearn2.models.mlp.Softmax\'>.get_monitoring_channels_from_state did not provide any further documentation for this channel.'
p402
sg239
(lp403
g184
(g48
S'\x00\x00\x00\x00'
tRp404
ag184
(g48
S'v\x005>'
tRp405
ag184
(g48
S'\xcc\xd6E>'
tRp406
ag184
(g48
S'\x84GP>'
tRp407
ag184
(g48
S'X\xe2Z>'
tRp408
ag184
(g48
S'\xda\xaae>'
tRp409
asg247
(lp410
I0
aI3
aI6
aI9
aI12
aI15
asg249
(lp411
F26.789327144622803
aF27.699034929275513
aF28.628019094467163
aF29.560002088546753
aF30.461482048034668
aF31.380002975463867
asg251
(lp412
I0
aI29301
aI58602
aI87903
aI117204
aI146505
asbaa(lp413
S'test_y_mean_max_class'
p414
ag1
(g233
g3
NtRp415
(dp416
g236
(lp417
I0
aI1
aI2
aI3
aI4
aI5
asg238
S'This channel came from a layer called "y" of an MLP.\n<class \'pylearn2.models.mlp.Softmax\'>.get_monitoring_channels_from_state did not provide any further documentation for this channel.'
p418
sg239
(lp419
g184
(g48
S'\x00\x00\x00?'
tRp420
ag184
(g48
S'\x84mZ?'
tRp421
ag184
(g48
S'\xe0\xf5Y?'
tRp422
ag184
(g48
S'\xac\xd7Y?'
tRp423
ag184
(g48
S'\x84BZ?'
tRp424
ag184
(g48
S'\xc3\xccY?'
tRp425
asg247
(lp426
I0
aI3
aI6
aI9
aI12
aI15
asg249
(lp427
F26.789327144622803
aF27.699034929275513
aF28.628019094467163
aF29.560002088546753
aF30.461482048034668
aF31.380002975463867
asg251
(lp428
I0
aI29301
aI58602
aI87903
aI117204
aI146505
asbaa(lp429
S'train_objective'
p430
ag1
(g233
g3
NtRp431
(dp432
g236
(lp433
I0
aI1
aI2
aI3
aI4
aI5
asg238
Nsg239
(lp434
g184
(g48
S'\x17r1?'
tRp435
ag184
(g48
S'\xac\xe5\xa7>'
tRp436
ag184
(g48
S'\x9cC\xa7>'
tRp437
ag184
(g48
S'/\x13\xa7>'
tRp438
ag184
(g48
S'\x14\x07\xa7>'
tRp439
ag184
(g48
S'\xf8@\xa7>'
tRp440
asg247
(lp441
I0
aI3
aI6
aI9
aI12
aI15
asg249
(lp442
F26.789327144622803
aF27.699034929275513
aF28.628019094467163
aF29.560002088546753
aF30.461482048034668
aF31.380002975463867
asg251
(lp443
I0
aI29301
aI58602
aI87903
aI117204
aI146505
asbaa(lp444
S'train_y_col_norms_max'
p445
ag1
(g233
g3
NtRp446
(dp447
g236
(lp448
I0
aI1
aI2
aI3
aI4
aI5
asg238
g258
sg239
(lp449
g184
(g48
S'\x00\x00\x00\x00'
tRp450
ag184
(g48
S'!\x8d\x0c@'
tRp451
ag184
(g48
S'\x96\xc8\x13@'
tRp452
ag184
(g48
S'\xccM\x15@'
tRp453
ag184
(g48
S'\xa7k\x1b@'
tRp454
ag184
(g48
S'\x1f\xd0\x1d@'
tRp455
asg247
(lp456
I0
aI3
aI6
aI9
aI12
aI15
asg249
(lp457
F26.789327144622803
aF27.699034929275513
aF28.628019094467163
aF29.560002088546753
aF30.461482048034668
aF31.380002975463867
asg251
(lp458
I0
aI29301
aI58602
aI87903
aI117204
aI146505
asbaa(lp459
S'train_y_row_norms_min'
p460
ag1
(g233
g3
NtRp461
(dp462
g236
(lp463
I0
aI1
aI2
aI3
aI4
aI5
asg238
g274
sg239
(lp464
g184
(g48
S'\x00\x00\x00\x00'
tRp465
ag184
(g48
S'p\xbd\xd39'
tRp466
ag184
(g48
S'\xe2\xa5":'
tRp467
ag184
(g48
S'\xc2\xb6Y:'
tRp468
ag184
(g48
S'\xc7\xcf\x18:'
tRp469
ag184
(g48
S'\xf8\xd6\xa19'
tRp470
asg247
(lp471
I0
aI3
aI6
aI9
aI12
aI15
asg249
(lp472
F26.789327144622803
aF27.699034929275513
aF28.628019094467163
aF29.560002088546753
aF30.461482048034668
aF31.380002975463867
asg251
(lp473
I0
aI29301
aI58602
aI87903
aI117204
aI146505
asbaa(lp474
S'train_y_nll'
p475
ag1
(g233
g3
NtRp476
(dp477
g236
(lp478
I0
aI1
aI2
aI3
aI4
aI5
asg238
g290
sg239
(lp479
g184
(g48
S'\x17r1?'
tRp480
ag184
(g48
S'\xac\xe5\xa7>'
tRp481
ag184
(g48
S'\x9cC\xa7>'
tRp482
ag184
(g48
S'/\x13\xa7>'
tRp483
ag184
(g48
S'\x14\x07\xa7>'
tRp484
ag184
(g48
S'\xf8@\xa7>'
tRp485
asg247
(lp486
I0
aI3
aI6
aI9
aI12
aI15
asg249
(lp487
F26.789327144622803
aF27.699034929275513
aF28.628019094467163
aF29.560002088546753
aF30.461482048034668
aF31.380002975463867
asg251
(lp488
I0
aI29301
aI58602
aI87903
aI117204
aI146505
asbaa(lp489
S'train_y_col_norms_mean'
p490
ag1
(g233
g3
NtRp491
(dp492
g236
(lp493
I0
aI1
aI2
aI3
aI4
aI5
asg238
g306
sg239
(lp494
g184
(g48
S'\x00\x00\x00\x00'
tRp495
ag184
(g48
S'!\x8d\x0c@'
tRp496
ag184
(g48
S'\x96\xc8\x13@'
tRp497
ag184
(g48
S'\xccM\x15@'
tRp498
ag184
(g48
S'\xa7k\x1b@'
tRp499
ag184
(g48
S'\x1f\xd0\x1d@'
tRp500
asg247
(lp501
I0
aI3
aI6
aI9
aI12
aI15
asg249
(lp502
F26.789327144622803
aF27.699034929275513
aF28.628019094467163
aF29.560002088546753
aF30.461482048034668
aF31.380002975463867
asg251
(lp503
I0
aI29301
aI58602
aI87903
aI117204
aI146505
asbaa(lp504
S'train_y_max_max_class'
p505
ag1
(g233
g3
NtRp506
(dp507
g236
(lp508
I0
aI1
aI2
aI3
aI4
aI5
asg238
g322
sg239
(lp509
g184
(g48
S'\xff\xff\xff>'
tRp510
ag184
(g48
S'\xdf\xf8\x7f?'
tRp511
ag184
(g48
S'\xae\xfa\x7f?'
tRp512
ag184
(g48
S'L\xf9\x7f?'
tRp513
ag184
(g48
S'\xe0\xfa\x7f?'
tRp514
ag184
(g48
S'-\xfa\x7f?'
tRp515
asg247
(lp516
I0
aI3
aI6
aI9
aI12
aI15
asg249
(lp517
F26.789327144622803
aF27.699034929275513
aF28.628019094467163
aF29.560002088546753
aF30.461482048034668
aF31.380002975463867
asg251
(lp518
I0
aI29301
aI58602
aI87903
aI117204
aI146505
asbaa(lp519
S'train_y_min_max_class'
p520
ag1
(g233
g3
NtRp521
(dp522
g236
(lp523
I0
aI1
aI2
aI3
aI4
aI5
asg238
g338
sg239
(lp524
g184
(g48
S'\xff\xff\xff>'
tRp525
ag184
(g48
S'\xb4\x00\x00?'
tRp526
ag184
(g48
S'\r\n\x00?'
tRp527
ag184
(g48
S'^\x10\x00?'
tRp528
ag184
(g48
S'\x0e\t\x00?'
tRp529
ag184
(g48
S'\x99\x04\x00?'
tRp530
asg247
(lp531
I0
aI3
aI6
aI9
aI12
aI15
asg249
(lp532
F26.789327144622803
aF27.699034929275513
aF28.628019094467163
aF29.560002088546753
aF30.461482048034668
aF31.380002975463867
asg251
(lp533
I0
aI29301
aI58602
aI87903
aI117204
aI146505
asbaa(lp534
S'train_y_row_norms_max'
p535
ag1
(g233
g3
NtRp536
(dp537
g236
(lp538
I0
aI1
aI2
aI3
aI4
aI5
asg238
g354
sg239
(lp539
g184
(g48
S'\x00\x00\x00\x00'
tRp540
ag184
(g48
S'\x1cio?'
tRp541
ag184
(g48
S'"q\x84?'
tRp542
ag184
(g48
S'^uy?'
tRp543
ag184
(g48
S'\x91[\x82?'
tRp544
ag184
(g48
S'\xa8{v?'
tRp545
asg247
(lp546
I0
aI3
aI6
aI9
aI12
aI15
asg249
(lp547
F26.789327144622803
aF27.699034929275513
aF28.628019094467163
aF29.560002088546753
aF30.461482048034668
aF31.380002975463867
asg251
(lp548
I0
aI29301
aI58602
aI87903
aI117204
aI146505
asbaa(lp549
S'train_y_misclass'
p550
ag1
(g233
g3
NtRp551
(dp552
g236
(lp553
I0
aI1
aI2
aI3
aI4
aI5
asg238
g370
sg239
(lp554
g184
(g48
S'^\xbew>'
tRp555
ag184
(g48
S'w\x13\x1c>'
tRp556
ag184
(g48
S')\x9f\x1b>'
tRp557
ag184
(g48
S'A7\x1c>'
tRp558
ag184
(g48
S'\n[\x1c>'
tRp559
ag184
(g48
S'\x96W\x1b>'
tRp560
asg247
(lp561
I0
aI3
aI6
aI9
aI12
aI15
asg249
(lp562
F26.789327144622803
aF27.699034929275513
aF28.628019094467163
aF29.560002088546753
aF30.461482048034668
aF31.380002975463867
asg251
(lp563
I0
aI29301
aI58602
aI87903
aI117204
aI146505
asbaa(lp564
S'train_y_col_norms_min'
p565
ag1
(g233
g3
NtRp566
(dp567
g236
(lp568
I0
aI1
aI2
aI3
aI4
aI5
asg238
g386
sg239
(lp569
g184
(g48
S'\x00\x00\x00\x00'
tRp570
ag184
(g48
S'!\x8d\x0c@'
tRp571
ag184
(g48
S'\x96\xc8\x13@'
tRp572
ag184
(g48
S'\xccM\x15@'
tRp573
ag184
(g48
S'\xa7k\x1b@'
tRp574
ag184
(g48
S'\x1f\xd0\x1d@'
tRp575
asg247
(lp576
I0
aI3
aI6
aI9
aI12
aI15
asg249
(lp577
F26.789327144622803
aF27.699034929275513
aF28.628019094467163
aF29.560002088546753
aF30.461482048034668
aF31.380002975463867
asg251
(lp578
I0
aI29301
aI58602
aI87903
aI117204
aI146505
asbaa(lp579
S'train_y_row_norms_mean'
p580
ag1
(g233
g3
NtRp581
(dp582
g236
(lp583
I0
aI1
aI2
aI3
aI4
aI5
asg238
g402
sg239
(lp584
g184
(g48
S'\x00\x00\x00\x00'
tRp585
ag184
(g48
S'u\x005>'
tRp586
ag184
(g48
S'\xcc\xd6E>'
tRp587
ag184
(g48
S'\x83GP>'
tRp588
ag184
(g48
S'W\xe2Z>'
tRp589
ag184
(g48
S'\xd8\xaae>'
tRp590
asg247
(lp591
I0
aI3
aI6
aI9
aI12
aI15
asg249
(lp592
F26.789327144622803
aF27.699034929275513
aF28.628019094467163
aF29.560002088546753
aF30.461482048034668
aF31.380002975463867
asg251
(lp593
I0
aI29301
aI58602
aI87903
aI117204
aI146505
asbaa(lp594
S'train_y_mean_max_class'
p595
ag1
(g233
g3
NtRp596
(dp597
g236
(lp598
I0
aI1
aI2
aI3
aI4
aI5
asg238
g418
sg239
(lp599
g184
(g48
S'\xff\xff\xff>'
tRp600
ag184
(g48
S'\x921Z?'
tRp601
ag184
(g48
S'\xfe\xcbY?'
tRp602
ag184
(g48
S'Z\xafY?'
tRp603
ag184
(g48
S'\x80#Z?'
tRp604
ag184
(g48
S'\x94\xa8Y?'
tRp605
asg247
(lp606
I0
aI3
aI6
aI9
aI12
aI15
asg249
(lp607
F26.789327144622803
aF27.699034929275513
aF28.628019094467163
aF29.560002088546753
aF30.461482048034668
aF31.380002975463867
asg251
(lp608
I0
aI29301
aI58602
aI87903
aI117204
aI146505
asbaa(lp609
S'valid_objective'
p610
ag1
(g233
g3
NtRp611
(dp612
g236
(lp613
I0
aI1
aI2
aI3
aI4
aI5
asg238
Nsg239
(lp614
g184
(g48
S'\x19r1?'
tRp615
ag184
(g48
S'\xbb\xc2\x9d>'
tRp616
ag184
(g48
S'\x9c\x13\x9e>'
tRp617
ag184
(g48
S'D+\x9d>'
tRp618
ag184
(g48
S'g\xb3\x9d>'
tRp619
ag184
(g48
S'\x12s\x9d>'
tRp620
asg247
(lp621
I0
aI3
aI6
aI9
aI12
aI15
asg249
(lp622
F26.789327144622803
aF27.699034929275513
aF28.628019094467163
aF29.560002088546753
aF30.461482048034668
aF31.380002975463867
asg251
(lp623
I0
aI29301
aI58602
aI87903
aI117204
aI146505
asbaa(lp624
S'valid_y_col_norms_max'
p625
ag1
(g233
g3
NtRp626
(dp627
g236
(lp628
I0
aI1
aI2
aI3
aI4
aI5
asg238
g258
sg239
(lp629
g184
(g48
S'\x00\x00\x00\x00'
tRp630
ag184
(g48
S'"\x8d\x0c@'
tRp631
ag184
(g48
S'\x96\xc8\x13@'
tRp632
ag184
(g48
S'\xccM\x15@'
tRp633
ag184
(g48
S'\xa8k\x1b@'
tRp634
ag184
(g48
S' \xd0\x1d@'
tRp635
asg247
(lp636
I0
aI3
aI6
aI9
aI12
aI15
asg249
(lp637
F26.789327144622803
aF27.699034929275513
aF28.628019094467163
aF29.560002088546753
aF30.461482048034668
aF31.380002975463867
asg251
(lp638
I0
aI29301
aI58602
aI87903
aI117204
aI146505
asbaa(lp639
S'valid_y_row_norms_min'
p640
ag1
(g233
g3
NtRp641
(dp642
g236
(lp643
I0
aI1
aI2
aI3
aI4
aI5
asg238
g274
sg239
(lp644
g184
(g48
S'\x00\x00\x00\x00'
tRp645
ag184
(g48
S'q\xbd\xd39'
tRp646
ag184
(g48
S'\xe3\xa5":'
tRp647
ag184
(g48
S'\xc2\xb6Y:'
tRp648
ag184
(g48
S'\xc7\xcf\x18:'
tRp649
ag184
(g48
S'\xf8\xd6\xa19'
tRp650
asg247
(lp651
I0
aI3
aI6
aI9
aI12
aI15
asg249
(lp652
F26.789327144622803
aF27.699034929275513
aF28.628019094467163
aF29.560002088546753
aF30.461482048034668
aF31.380002975463867
asg251
(lp653
I0
aI29301
aI58602
aI87903
aI117204
aI146505
asbaa(lp654
S'valid_y_nll'
p655
ag1
(g233
g3
NtRp656
(dp657
g236
(lp658
I0
aI1
aI2
aI3
aI4
aI5
asg238
g290
sg239
(lp659
g184
(g48
S'\x19r1?'
tRp660
ag184
(g48
S'\xbb\xc2\x9d>'
tRp661
ag184
(g48
S'\x9c\x13\x9e>'
tRp662
ag184
(g48
S'D+\x9d>'
tRp663
ag184
(g48
S'g\xb3\x9d>'
tRp664
ag184
(g48
S'\x12s\x9d>'
tRp665
asg247
(lp666
I0
aI3
aI6
aI9
aI12
aI15
asg249
(lp667
F26.789327144622803
aF27.699034929275513
aF28.628019094467163
aF29.560002088546753
aF30.461482048034668
aF31.380002975463867
asg251
(lp668
I0
aI29301
aI58602
aI87903
aI117204
aI146505
asbaa(lp669
S'valid_y_col_norms_mean'
p670
ag1
(g233
g3
NtRp671
(dp672
g236
(lp673
I0
aI1
aI2
aI3
aI4
aI5
asg238
g306
sg239
(lp674
g184
(g48
S'\x00\x00\x00\x00'
tRp675
ag184
(g48
S'"\x8d\x0c@'
tRp676
ag184
(g48
S'\x96\xc8\x13@'
tRp677
ag184
(g48
S'\xccM\x15@'
tRp678
ag184
(g48
S'\xa8k\x1b@'
tRp679
ag184
(g48
S' \xd0\x1d@'
tRp680
asg247
(lp681
I0
aI3
aI6
aI9
aI12
aI15
asg249
(lp682
F26.789327144622803
aF27.699034929275513
aF28.628019094467163
aF29.560002088546753
aF30.461482048034668
aF31.380002975463867
asg251
(lp683
I0
aI29301
aI58602
aI87903
aI117204
aI146505
asbaa(lp684
S'valid_y_max_max_class'
p685
ag1
(g233
g3
NtRp686
(dp687
g236
(lp688
I0
aI1
aI2
aI3
aI4
aI5
asg238
g322
sg239
(lp689
g184
(g48
S'\x00\x00\x00?'
tRp690
ag184
(g48
S'\xe0\xf5\x7f?'
tRp691
ag184
(g48
S'\xf2\xf6\x7f?'
tRp692
ag184
(g48
S'\xe3\xf4\x7f?'
tRp693
ag184
(g48
S's\xf7\x7f?'
tRp694
ag184
(g48
S'\xbd\xf5\x7f?'
tRp695
asg247
(lp696
I0
aI3
aI6
aI9
aI12
aI15
asg249
(lp697
F26.789327144622803
aF27.699034929275513
aF28.628019094467163
aF29.560002088546753
aF30.461482048034668
aF31.380002975463867
asg251
(lp698
I0
aI29301
aI58602
aI87903
aI117204
aI146505
asbaa(lp699
S'valid_y_min_max_class'
p700
ag1
(g233
g3
NtRp701
(dp702
g236
(lp703
I0
aI1
aI2
aI3
aI4
aI5
asg238
g338
sg239
(lp704
g184
(g48
S'\x00\x00\x00?'
tRp705
ag184
(g48
S'{\t\x00?'
tRp706
ag184
(g48
S'c\x04\x00?'
tRp707
ag184
(g48
S'>\x10\x00?'
tRp708
ag184
(g48
S'+\x00\x00?'
tRp709
ag184
(g48
S'q\x02\x00?'
tRp710
asg247
(lp711
I0
aI3
aI6
aI9
aI12
aI15
asg249
(lp712
F26.789327144622803
aF27.699034929275513
aF28.628019094467163
aF29.560002088546753
aF30.461482048034668
aF31.380002975463867
asg251
(lp713
I0
aI29301
aI58602
aI87903
aI117204
aI146505
asbaa(lp714
S'valid_y_row_norms_max'
p715
ag1
(g233
g3
NtRp716
(dp717
g236
(lp718
I0
aI1
aI2
aI3
aI4
aI5
asg238
g354
sg239
(lp719
g184
(g48
S'\x00\x00\x00\x00'
tRp720
ag184
(g48
S'\x1bio?'
tRp721
ag184
(g48
S'"q\x84?'
tRp722
ag184
(g48
S'`uy?'
tRp723
ag184
(g48
S'\x91[\x82?'
tRp724
ag184
(g48
S'\xa8{v?'
tRp725
asg247
(lp726
I0
aI3
aI6
aI9
aI12
aI15
asg249
(lp727
F26.789327144622803
aF27.699034929275513
aF28.628019094467163
aF29.560002088546753
aF30.461482048034668
aF31.380002975463867
asg251
(lp728
I0
aI29301
aI58602
aI87903
aI117204
aI146505
asbaa(lp729
S'valid_y_misclass'
p730
ag1
(g233
g3
NtRp731
(dp732
g236
(lp733
I0
aI1
aI2
aI3
aI4
aI5
asg238
g370
sg239
(lp734
g184
(g48
S'\x066l>'
tRp735
ag184
(g48
S'.\xf2\x13>'
tRp736
ag184
(g48
S'j\xe3\x14>'
tRp737
ag184
(g48
S'\x11%\x16>'
tRp738
ag184
(g48
S'\x97B\x14>'
tRp739
ag185
asg247
(lp740
I0
aI3
aI6
aI9
aI12
aI15
asg249
(lp741
F26.789327144622803
aF27.699034929275513
aF28.628019094467163
aF29.560002088546753
aF30.461482048034668
aF31.380002975463867
asg251
(lp742
I0
aI29301
aI58602
aI87903
aI117204
aI146505
asbaa(lp743
S'valid_y_col_norms_min'
p744
ag1
(g233
g3
NtRp745
(dp746
g236
(lp747
I0
aI1
aI2
aI3
aI4
aI5
asg238
g386
sg239
(lp748
g184
(g48
S'\x00\x00\x00\x00'
tRp749
ag184
(g48
S'"\x8d\x0c@'
tRp750
ag184
(g48
S'\x96\xc8\x13@'
tRp751
ag184
(g48
S'\xccM\x15@'
tRp752
ag184
(g48
S'\xa8k\x1b@'
tRp753
ag184
(g48
S' \xd0\x1d@'
tRp754
asg247
(lp755
I0
aI3
aI6
aI9
aI12
aI15
asg249
(lp756
F26.789327144622803
aF27.699034929275513
aF28.628019094467163
aF29.560002088546753
aF30.461482048034668
aF31.380002975463867
asg251
(lp757
I0
aI29301
aI58602
aI87903
aI117204
aI146505
asbaa(lp758
S'valid_y_row_norms_mean'
p759
ag1
(g233
g3
NtRp760
(dp761
g236
(lp762
I0
aI1
aI2
aI3
aI4
aI5
asg238
g402
sg239
(lp763
g184
(g48
S'\x00\x00\x00\x00'
tRp764
ag184
(g48
S'v\x005>'
tRp765
ag184
(g48
S'\xcc\xd6E>'
tRp766
ag184
(g48
S'\x84GP>'
tRp767
ag184
(g48
S'W\xe2Z>'
tRp768
ag184
(g48
S'\xd7\xaae>'
tRp769
asg247
(lp770
I0
aI3
aI6
aI9
aI12
aI15
asg249
(lp771
F26.789327144622803
aF27.699034929275513
aF28.628019094467163
aF29.560002088546753
aF30.461482048034668
aF31.380002975463867
asg251
(lp772
I0
aI29301
aI58602
aI87903
aI117204
aI146505
asbaa(lp773
S'valid_y_mean_max_class'
p774
ag1
(g233
g3
NtRp775
(dp776
g236
(lp777
I0
aI1
aI2
aI3
aI4
aI5
asg238
g418
sg239
(lp778
g184
(g48
S'\x00\x00\x00?'
tRp779
ag184
(g48
S'l\x0b[?'
tRp780
ag184
(g48
S'\x13\x92Z?'
tRp781
ag184
(g48
S'\xfdnZ?'
tRp782
ag184
(g48
S'\x0c\x01[?'
tRp783
ag184
(g48
S'\x13vZ?'
tRp784
asg247
(lp785
I0
aI3
aI6
aI9
aI12
aI15
asg249
(lp786
F26.789327144622803
aF27.699034929275513
aF28.628019094467163
aF29.560002088546753
aF30.461482048034668
aF31.380002975463867
asg251
(lp787
I0
aI29301
aI58602
aI87903
aI117204
aI146505
asbaa(lp788
S'ave_step_size'
p789
ag1
(g233
g3
NtRp790
(dp791
g236
(lp792
I0
aI1
aI2
aI3
aI4
aI5
asg238
Nsg239
(lp793
g184
(g48
S'\x00\x00\x00\x00'
tRp794
ag184
(g48
S'\x05\xb7\x9a>'
tRp795
ag184
(g48
S'P\x16w>'
tRp796
ag184
(g48
S'\x958F>'
tRp797
ag184
(g48
S'\xd2V!>'
tRp798
ag184
(g48
S'\x9b\xd6\t>'
tRp799
asg247
(lp800
I0
aI3
aI6
aI9
aI12
aI15
asg249
(lp801
F26.789327144622803
aF27.699034929275513
aF28.628019094467163
aF29.560002088546753
aF30.461482048034668
aF31.380002975463867
asg251
(lp802
I0
aI29301
aI58602
aI87903
aI117204
aI146505
asbaa(lp803
S'ave_grad_size'
p804
ag1
(g233
g3
NtRp805
(dp806
g236
(lp807
I0
aI1
aI2
aI3
aI4
aI5
asg238
Nsg239
(lp808
g184
(g48
S'\x00\x00\x00\x00'
tRp809
ag184
(g48
S'H\x89G?'
tRp810
ag184
(g48
S'\x88\x08\x15?'
tRp811
ag184
(g48
S'\x01\x11\xdf>'
tRp812
ag184
(g48
S'4\x81\xa7>'
tRp813
ag184
(g48
S'bM}>'
tRp814
asg247
(lp815
I0
aI3
aI6
aI9
aI12
aI15
asg249
(lp816
F26.789327144622803
aF27.699034929275513
aF28.628019094467163
aF29.560002088546753
aF30.461482048034668
aF31.380002975463867
asg251
(lp817
I0
aI29301
aI58602
aI87903
aI117204
aI146505
asbaa(lp818
S'ave_grad_mult'
p819
ag1
(g233
g3
NtRp820
(dp821
g236
(lp822
I0
aI1
aI2
aI3
aI4
aI5
asg238
Nsg239
(lp823
g184
(g48
S'\x00\x00\x00\x00'
tRp824
ag184
(g48
S'\x84;\xbc?'
tRp825
ag184
(g48
S':\xc7\x13@'
tRp826
ag184
(g48
S'Xe,@'
tRp827
ag184
(g48
S'\xc4`F@'
tRp828
ag184
(g48
S'\x0elS@'
tRp829
asg247
(lp830
I0
aI3
aI6
aI9
aI12
aI15
asg249
(lp831
F26.789327144622803
aF27.699034929275513
aF28.628019094467163
aF29.560002088546753
aF30.461482048034668
aF31.380002975463867
asg251
(lp832
I0
aI29301
aI58602
aI87903
aI117204
aI146505
asbaa(lp833
S'training_seconds_this_epoch'
p834
ag1
(g233
g3
NtRp835
(dp836
g236
(lp837
I0
aI1
aI2
aI3
aI4
aI5
asg238
S'The number of seconds that were spent in actual training during the most\nrecent epoch. This excludes seconds that were spent running callbacks for\nthe extensions, computing monitoring channels, etc.'
p838
sg239
(lp839
g184
(g48
S'\x00\x00\x00\x00'
tRp840
ag184
(g48
S'\x1aW`?'
tRp841
ag184
(g48
S'\xdfYc?'
tRp842
ag184
(g48
S'<7e?'
tRp843
ag184
(g48
S'6\xee]?'
tRp844
ag184
(g48
S'\x93Xb?'
tRp845
asg247
(lp846
I0
aI3
aI6
aI9
aI12
aI15
asg249
(lp847
F26.789327144622803
aF27.699034929275513
aF28.628019094467163
aF29.560002088546753
aF30.461482048034668
aF31.380002975463867
asg251
(lp848
I0
aI29301
aI58602
aI87903
aI117204
aI146505
asbaa(lp849
S'total_seconds_last_epoch'
p850
ag1
(g233
g3
NtRp851
(dp852
g236
(lp853
I0
aI1
aI2
aI3
aI4
aI5
asg238
S'The number of seconds that were spent on the entirety of processing for the\nprevious epoch. This includes not only training but also the computation of\nthe monitoring channels, running TrainExtension callbacks, etc. This value\nis reported for the *previous* epoch because the amount of time spent on\nmonitoring for this epoch is not known until the monitoring channels have\nalready been reported.'
p854
sg239
(lp855
g184
(g48
S'\x00\x00\x00\x00'
tRp856
ag184
(g48
S'\x00\x00\x00\x00'
tRp857
ag184
(g48
S'\x08\xd1j?'
tRp858
ag184
(g48
S'\xca\xa6l?'
tRp859
ag184
(g48
S'\x80\x13n?'
tRp860
ag184
(g48
S'n\xaaf?'
tRp861
asg247
(lp862
I0
aI3
aI6
aI9
aI12
aI15
asg249
(lp863
F26.789327144622803
aF27.699034929275513
aF28.628019094467163
aF29.560002088546753
aF30.461482048034668
aF31.380002975463867
asg251
(lp864
I0
aI29301
aI58602
aI87903
aI117204
aI146505
asbaatRp865
sS'_datasets'
p866
(lp867
S"!obj:adult_dataset.AdultDataset {path: 'adult/test.csv', one_hot: 1}\n"
p868
aS"!obj:adult_dataset.AdultDataset {path: 'adult/train_v.csv', one_hot: 1}\n"
p869
aS"!obj:adult_dataset.AdultDataset {path: 'adult/test_v.csv', one_hot: 1}\n"
p870
asS'_iteration_mode'
p871
(lp872
S'sequential'
p873
ag873
ag873
asS'_data_specs_mapping'
p874
g1
(cpylearn2.utils.data_specs
DataSpecsMapping
p875
g3
NtRp876
(dp877
S'spec_mapping'
p878
((I0
I1
t(I0
I1
t(I0
I1
t(I0
I1
t(I0
I1
t(I0
I1
t(I0
I1
t(I0
I1
t(I0
I1
t(I0
I1
t(I0
I1
t(I0
I1
t(I0
I1
t(I0
I1
t(I0
I1
t(I0
I1
t(I0
I1
t(I0
I1
t(I0
I1
t(I0
I1
t(I0
I1
t(I0
I1
t(I0
I1
t(I0
I1
t(I0
I1
t(I0
I1
t(I0
I1
t(I0
I1
t(I0
I1
t(I0
I1
t(I0
I1
t(I0
I1
t(I0
I1
t(I0
I1
t(I0
I1
t(I0
I1
t(I0
I1
tNNNNNtp879
sS'specs_to_index'
p880
(dp881
(g68
g206
tp882
I0
s(g90
g188
tp883
I1
ssS'n_unique_specs'
p884
I2
sbsS'training_succeeded'
p885
I00
sS'_num_batches_seen'
p886
I15
sS't0'
p887
F1426114020.217212
sg83
(lp888
S'theano_function_mode'
p889
aS'accum'
p890
aS'begin_record_entry'
p891
aS'num_examples'
p892
aS'prereqs'
p893
asS'model'
p894
g4
sS'_nested_data_specs'
p895
(g1
(g216
g3
NtRp896
(dp897
g73
(lp898
sg220
(lp899
g1
(g216
g3
NtRp900
(dp901
g73
(lp902
sg220
(lp903
g68
ag90
asg76
(lp904
sbag1
(g216
g3
NtRp905
(dp906
g73
(lp907
sg220
(lp908
g68
ag90
asg76
(lp909
sbag1
(g216
g3
NtRp910
(dp911
g73
(lp912
sg220
(lp913
g68
ag90
asg76
(lp914
sbag910
ag910
ag910
ag910
ag910
ag910
ag910
ag910
ag910
ag910
ag1
(g216
g3
NtRp915
(dp916
g73
(lp917
sg220
(lp918
g68
ag90
asg76
(lp919
sbag910
ag910
ag910
ag910
ag910
ag910
ag910
ag910
ag910
ag910
ag910
ag1
(g216
g3
NtRp920
(dp921
g73
(lp922
sg220
(lp923
g68
ag90
asg76
(lp924
sbag910
ag910
ag910
ag910
ag910
ag910
ag910
ag910
ag910
ag910
ag910
ag1
(cpylearn2.space
NullSpace
p925
g3
NtRp926
(dp927
g73
(lp928
sg76
(lp929
sbag1
(g925
g3
NtRp930
(dp931
g73
(lp932
sg76
(lp933
sbag1
(g925
g3
NtRp934
(dp935
g73
(lp936
sg76
(lp937
sbag1
(g925
g3
NtRp938
(dp939
g73
(lp940
sg76
(lp941
sbag1
(g925
g3
NtRp942
(dp943
g73
(lp944
sg76
(lp945
sbasg76
(lp946
sb((g206
g188
t(g206
g188
tp947
(g206
g188
tp948
g948
g948
g948
g948
g948
g948
g948
g948
g948
g948
(g206
g188
tp949
g948
g948
g948
g948
g948
g948
g948
g948
g948
g948
g948
(g206
g188
tp950
g948
g948
g948
g948
g948
g948
g948
g948
g948
g948
g948
S''
S''
S''
S''
S''
ttp951
sS'_rng_seed'
p952
(lp953
NaNaNasbaa(lp954
g107
aNaa(lp955
S'dataset_yaml_src'
p956
ag869
aatRp957
b.